---
triple:          'arm64-apple-darwin'
binary-path:     ircserv
relocations:
  - { offsetInCU: 0xA519, offset: 0xA519, size: 0x8, addend: 0x0, symName: __ZNSt3__124__put_character_sequenceB7v160006IcNS_11char_traitsIcEEEERNS_13basic_ostreamIT_T0_EES7_PKS4_m, symObjAddr: 0x4874, symBinAddr: 0x10000721C, symSize: 0x1F4 }
  - { offsetInCU: 0xCF9A, offset: 0xCF9A, size: 0x8, addend: 0x0, symName: __ZNSt3__16copy_nB7v160006IPKcmPcEENS_9enable_ifIXsr33__is_cpp17_random_access_iteratorIT_EE5valueET1_E4typeES5_T0_S6_, symObjAddr: 0x938C, symBinAddr: 0x10000BD34, symSize: 0x44 }
  - { offsetInCU: 0xDF3A, offset: 0xDF3A, size: 0x8, addend: 0x0, symName: __ZNSt3__1lsB7v160006INS_11char_traitsIcEEEERNS_13basic_ostreamIcT_EES6_PKc, symObjAddr: 0x4B0, symBinAddr: 0x100002E58, symSize: 0x48 }
  - { offsetInCU: 0xDF80, offset: 0xDF80, size: 0x8, addend: 0x0, symName: __ZNSt3__14endlB7v160006IcNS_11char_traitsIcEEEERNS_13basic_ostreamIT_T0_EES7_, symObjAddr: 0x524, symBinAddr: 0x100002ECC, symSize: 0x58 }
  - { offsetInCU: 0xDFC0, offset: 0xDFC0, size: 0x8, addend: 0x0, symName: __ZNSt3__19make_pairB7v160006IRi4UserEENS_4pairINS_18__unwrap_ref_decayIT_E4typeENS4_IT0_E4typeEEEOS5_OS8_, symObjAddr: 0x1548, symBinAddr: 0x100003EF0, symSize: 0x40 }
  - { offsetInCU: 0xE0C7, offset: 0xE0C7, size: 0x8, addend: 0x0, symName: __ZNSt3__1plB7v160006IcNS_11char_traitsIcEENS_9allocatorIcEEEENS_12basic_stringIT_T0_T1_EERKS9_PKS6_, symObjAddr: 0x1708, symBinAddr: 0x1000040B0, symSize: 0x11C }
  - { offsetInCU: 0xE168, offset: 0xE168, size: 0x8, addend: 0x0, symName: __ZNSt3__1plB7v160006IcNS_11char_traitsIcEENS_9allocatorIcEEEENS_12basic_stringIT_T0_T1_EERKS9_SB_, symObjAddr: 0x1A54, symBinAddr: 0x1000043FC, symSize: 0x134 }
  - { offsetInCU: 0xE225, offset: 0xE225, size: 0x8, addend: 0x0, symName: __ZNSt3__1neB7v160006IP7ChannelEEbRKNS_11__wrap_iterIT_EES7_, symObjAddr: 0x21E8, symBinAddr: 0x100004B90, symSize: 0x34 }
  - { offsetInCU: 0xE268, offset: 0xE268, size: 0x8, addend: 0x0, symName: __ZNSt3__1neB7v160006IPP4UserEEbRKNS_11__wrap_iterIT_EES8_, symObjAddr: 0x22BC, symBinAddr: 0x100004C64, symSize: 0x34 }
  - { offsetInCU: 0xE2AB, offset: 0xE2AB, size: 0x8, addend: 0x0, symName: __ZNSt3__119__debug_db_insert_cB7v160006INS_6vectorINS_12basic_stringIcNS_11char_traitsIcEENS_9allocatorIcEEEENS5_IS7_EEEEEEvPT_, symObjAddr: 0x2514, symBinAddr: 0x100004EBC, symSize: 0x10 }
  - { offsetInCU: 0xE2DC, offset: 0xE2DC, size: 0x8, addend: 0x0, symName: __ZNSt3__118__debug_db_erase_cB7v160006INS_6vectorINS_12basic_stringIcNS_11char_traitsIcEENS_9allocatorIcEEEENS5_IS7_EEEEEEvPT_, symObjAddr: 0x2880, symBinAddr: 0x100005228, symSize: 0x10 }
  - { offsetInCU: 0xE30D, offset: 0xE30D, size: 0x8, addend: 0x0, symName: __ZNSt3__112__to_addressB7v160006INS_12basic_stringIcNS_11char_traitsIcEENS_9allocatorIcEEEEEEPT_S8_, symObjAddr: 0x29C4, symBinAddr: 0x10000536C, symSize: 0x14 }
  - { offsetInCU: 0xE342, offset: 0xE342, size: 0x8, addend: 0x0, symName: __ZNSt3__130__libcpp_is_constant_evaluatedB7v160006Ev, symObjAddr: 0x2B40, symBinAddr: 0x1000054E8, symSize: 0xC }
  - { offsetInCU: 0xE35F, offset: 0xE35F, size: 0x8, addend: 0x0, symName: __ZNSt3__119__libcpp_deallocateB7v160006EPvmm, symObjAddr: 0x2B4C, symBinAddr: 0x1000054F4, symSize: 0x30 }
  - { offsetInCU: 0xE3A7, offset: 0xE3A7, size: 0x8, addend: 0x0, symName: __ZNSt3__127__do_deallocate_handle_sizeB7v160006IJEEEvPvmDpT_, symObjAddr: 0x2B7C, symBinAddr: 0x100005524, symSize: 0x28 }
  - { offsetInCU: 0xE3E5, offset: 0xE3E5, size: 0x8, addend: 0x0, symName: __ZNSt3__124__libcpp_operator_deleteB7v160006IJPvEEEvDpT_, symObjAddr: 0x2BA4, symBinAddr: 0x10000554C, symSize: 0x24 }
  - { offsetInCU: 0xE44D, offset: 0xE44D, size: 0x8, addend: 0x0, symName: __ZNSt3__119__debug_db_insert_cB7v160006INS_12basic_stringIcNS_11char_traitsIcEENS_9allocatorIcEEEEEEvPT_, symObjAddr: 0x31E8, symBinAddr: 0x100005B90, symSize: 0x10 }
  - { offsetInCU: 0xE47E, offset: 0xE47E, size: 0x8, addend: 0x0, symName: __ZNSt3__117__libcpp_allocateB7v160006Emm, symObjAddr: 0x3674, symBinAddr: 0x10000601C, symSize: 0x28 }
  - { offsetInCU: 0xE4BB, offset: 0xE4BB, size: 0x8, addend: 0x0, symName: __ZNSt3__121__libcpp_operator_newB7v160006IJmEEEPvDpT_, symObjAddr: 0x36B0, symBinAddr: 0x100006058, symSize: 0x24 }
  - { offsetInCU: 0xE4F4, offset: 0xE4F4, size: 0x8, addend: 0x0, symName: __ZNSt3__119__debug_db_insert_cB7v160006INS_6vectorI7ChannelNS_9allocatorIS2_EEEEEEvPT_, symObjAddr: 0x3A80, symBinAddr: 0x100006428, symSize: 0x10 }
  - { offsetInCU: 0xE5B2, offset: 0xE5B2, size: 0x8, addend: 0x0, symName: __ZNSt3__118__debug_db_erase_cB7v160006INS_6vectorI7ChannelNS_9allocatorIS2_EEEEEEvPT_, symObjAddr: 0x4424, symBinAddr: 0x100006DCC, symSize: 0x10 }
  - { offsetInCU: 0xE5E3, offset: 0xE5E3, size: 0x8, addend: 0x0, symName: __ZNSt3__112__to_addressB7v160006I7ChannelEEPT_S3_, symObjAddr: 0x4568, symBinAddr: 0x100006F10, symSize: 0x14 }
  - { offsetInCU: 0xE618, offset: 0xE618, size: 0x8, addend: 0x0, symName: __ZNSt3__116__pad_and_outputB7v160006IcNS_11char_traitsIcEEEENS_19ostreambuf_iteratorIT_T0_EES6_PKS4_S8_S8_RNS_8ios_baseES4_, symObjAddr: 0x4ACC, symBinAddr: 0x100007474, symSize: 0x248 }
  - { offsetInCU: 0xE6E7, offset: 0xE6E7, size: 0x8, addend: 0x0, symName: __ZNSt3__112__to_addressB7v160006IKcEEPT_S3_, symObjAddr: 0x4F4C, symBinAddr: 0x1000078F4, symSize: 0x14 }
  - { offsetInCU: 0xE74F, offset: 0xE74F, size: 0x8, addend: 0x0, symName: __ZNSt3__19use_facetB7v160006INS_5ctypeIcEEEERKT_RKNS_6localeE, symObjAddr: 0x5224, symBinAddr: 0x100007BCC, symSize: 0x2C }
  - { offsetInCU: 0xEC1E, offset: 0xEC1E, size: 0x8, addend: 0x0, symName: __ZNSt3__118__constexpr_strlenB7v160006EPKc, symObjAddr: 0x52BC, symBinAddr: 0x100007C64, symSize: 0x24 }
  - { offsetInCU: 0xEC4A, offset: 0xEC4A, size: 0x8, addend: 0x0, symName: __ZNSt3__119__debug_db_insert_cB7v160006INS_6vectorIiNS_9allocatorIiEEEEEEvPT_, symObjAddr: 0x5368, symBinAddr: 0x100007D10, symSize: 0x10 }
  - { offsetInCU: 0xEC7B, offset: 0xEC7B, size: 0x8, addend: 0x0, symName: __ZNSt3__118__debug_db_erase_cB7v160006INS_6vectorIiNS_9allocatorIiEEEEEEvPT_, symObjAddr: 0x5624, symBinAddr: 0x100007FCC, symSize: 0x10 }
  - { offsetInCU: 0xECAC, offset: 0xECAC, size: 0x8, addend: 0x0, symName: __ZNSt3__112__to_addressB7v160006IiEEPT_S2_, symObjAddr: 0x5740, symBinAddr: 0x1000080E8, symSize: 0x14 }
  - { offsetInCU: 0xECE1, offset: 0xECE1, size: 0x8, addend: 0x0, symName: __ZNSt3__13maxB7v160006ImEERKT_S3_S3_, symObjAddr: 0x5F68, symBinAddr: 0x100008910, symSize: 0x2C }
  - { offsetInCU: 0xED24, offset: 0xED24, size: 0x8, addend: 0x0, symName: __ZNSt3__13minB7v160006ImEERKT_S3_S3_, symObjAddr: 0x5F94, symBinAddr: 0x10000893C, symSize: 0x2C }
  - { offsetInCU: 0xEF68, offset: 0xEF68, size: 0x8, addend: 0x0, symName: __ZNSt3__13minB7v160006ImNS_6__lessImmEEEERKT_S5_S5_T0_, symObjAddr: 0x6020, symBinAddr: 0x1000089C8, symSize: 0x54 }
  - { offsetInCU: 0xEFFD, offset: 0xEFFD, size: 0x8, addend: 0x0, symName: __ZNSt3__120__throw_length_errorB7v160006EPKc, symObjAddr: 0x60FC, symBinAddr: 0x100008AA4, symSize: 0x64 }
  - { offsetInCU: 0xF025, offset: 0xF025, size: 0x8, addend: 0x0, symName: __ZNSt3__13maxB7v160006ImNS_6__lessImmEEEERKT_S5_S5_T0_, symObjAddr: 0x61E0, symBinAddr: 0x100008B88, symSize: 0x54 }
  - { offsetInCU: 0xF07F, offset: 0xF07F, size: 0x8, addend: 0x0, symName: __ZNSt3__119__allocate_at_leastB7v160006INS_9allocatorIiEEEENS_19__allocation_resultINS_16allocator_traitsIT_E7pointerEEERS5_m, symObjAddr: 0x6344, symBinAddr: 0x100008CEC, symSize: 0x40 }
  - { offsetInCU: 0xF0C2, offset: 0xF0C2, size: 0x8, addend: 0x0, symName: __ZNSt3__142__uninitialized_allocator_move_if_noexceptB7v160006INS_9allocatorIiEENS_16reverse_iteratorIPiEES5_ivEET1_RT_T0_S9_S6_, symObjAddr: 0x6524, symBinAddr: 0x100008ECC, symSize: 0xE8 }
  - { offsetInCU: 0xF13F, offset: 0xF13F, size: 0x8, addend: 0x0, symName: __ZNSt3__14swapB7v160006IPiEEvRT_S3_, symObjAddr: 0x6658, symBinAddr: 0x100009000, symSize: 0x3C }
  - { offsetInCU: 0xF190, offset: 0xF190, size: 0x8, addend: 0x0, symName: __ZNSt3__125__debug_db_invalidate_allB7v160006INS_6vectorIiNS_9allocatorIiEEEEEEvPT_, symObjAddr: 0x6740, symBinAddr: 0x1000090E8, symSize: 0x10 }
  - { offsetInCU: 0xF1C1, offset: 0xF1C1, size: 0x8, addend: 0x0, symName: __ZNSt3__1neB7v160006IPiS1_EEbRKNS_16reverse_iteratorIT_EERKNS2_IT0_EE, symObjAddr: 0x6750, symBinAddr: 0x1000090F8, symSize: 0x48 }
  - { offsetInCU: 0xF232, offset: 0xF232, size: 0x8, addend: 0x0, symName: __ZNSt3__114__construct_atB7v160006IiJiEPiEEPT_S3_DpOT0_, symObjAddr: 0x6798, symBinAddr: 0x100009140, symSize: 0x2C }
  - { offsetInCU: 0xF2A2, offset: 0xF2A2, size: 0x8, addend: 0x0, symName: __ZNSt3__112__to_addressB7v160006INS_16reverse_iteratorIPiEEvEENS_5decayIDTclsr19__to_address_helperIT_EE6__callclsr3stdE7declvalIRKS5_EEEEE4typeES7_, symObjAddr: 0x67C4, symBinAddr: 0x10000916C, symSize: 0x24 }
  - { offsetInCU: 0xF2D8, offset: 0xF2D8, size: 0x8, addend: 0x0, symName: __ZNSt3__14moveB7v160006INS_16reverse_iteratorIPiEES3_EET0_T_S5_S4_, symObjAddr: 0x6830, symBinAddr: 0x1000091D8, symSize: 0x78 }
  - { offsetInCU: 0xF35B, offset: 0xF35B, size: 0x8, addend: 0x0, symName: __ZNSt3__16__moveB7v160006INS_17_ClassicAlgPolicyENS_16reverse_iteratorIPiEES4_S4_EENS_4pairIT0_T2_EES6_T1_S7_, symObjAddr: 0x6918, symBinAddr: 0x1000092C0, symSize: 0x64 }
  - { offsetInCU: 0xF3C7, offset: 0xF3C7, size: 0x8, addend: 0x0, symName: __ZNSt3__123__dispatch_copy_or_moveB7v160006INS_17_ClassicAlgPolicyENS_11__move_loopIS1_EENS_14__move_trivialENS_16reverse_iteratorIPiEES7_S7_EENS_4pairIT2_T4_EES9_T3_SA_, symObjAddr: 0x697C, symBinAddr: 0x100009324, symSize: 0x7C }
  - { offsetInCU: 0xF445, offset: 0xF445, size: 0x8, addend: 0x0, symName: __ZNSt3__121__unwrap_and_dispatchB7v160006INS_10__overloadINS_11__move_loopINS_17_ClassicAlgPolicyEEENS_14__move_trivialEEENS_16reverse_iteratorIPiEES9_S9_Li0EEENS_4pairIT0_T2_EESB_T1_SC_, symObjAddr: 0x69F8, symBinAddr: 0x1000093A0, symSize: 0x12C }
  - { offsetInCU: 0xF4D5, offset: 0xF4D5, size: 0x8, addend: 0x0, symName: __ZNSt3__114__unwrap_rangeB7v160006INS_16reverse_iteratorIPiEES3_EENS_4pairIT0_S5_EET_S7_, symObjAddr: 0x6B24, symBinAddr: 0x1000094CC, symSize: 0x84 }
  - { offsetInCU: 0xF629, offset: 0xF629, size: 0x8, addend: 0x0, symName: __ZNSt3__113__unwrap_iterB7v160006INS_16reverse_iteratorIPiEENS_18__unwrap_iter_implIS3_Lb0EEELi0EEEDTclsrT0_8__unwrapclsr3stdE7declvalIT_EEEES7_, symObjAddr: 0x6C48, symBinAddr: 0x1000095F0, symSize: 0x44 }
  - { offsetInCU: 0xF66D, offset: 0xF66D, size: 0x8, addend: 0x0, symName: __ZNSt3__19make_pairB7v160006INS_16reverse_iteratorIPiEES3_EENS_4pairINS_18__unwrap_ref_decayIT_E4typeENS5_IT0_E4typeEEEOS6_OS9_, symObjAddr: 0x6C8C, symBinAddr: 0x100009634, symSize: 0x38 }
  - { offsetInCU: 0xF6BC, offset: 0xF6BC, size: 0x8, addend: 0x0, symName: __ZNSt3__114__rewrap_rangeB7v160006INS_16reverse_iteratorIPiEES3_EET_S4_T0_, symObjAddr: 0x6CC4, symBinAddr: 0x10000966C, symSize: 0x5C }
  - { offsetInCU: 0xF708, offset: 0xF708, size: 0x8, addend: 0x0, symName: __ZNSt3__113__rewrap_iterB7v160006INS_16reverse_iteratorIPiEES3_NS_18__unwrap_iter_implIS3_Lb0EEEEET_S6_T0_, symObjAddr: 0x6D20, symBinAddr: 0x1000096C8, symSize: 0x88 }
  - { offsetInCU: 0xF851, offset: 0xF851, size: 0x8, addend: 0x0, symName: __ZNSt3__127__tree_balance_after_insertB7v160006IPNS_16__tree_node_baseIPvEEEEvT_S5_, symObjAddr: 0x7E7C, symBinAddr: 0x10000A824, symSize: 0x340 }
  - { offsetInCU: 0xF8C5, offset: 0xF8C5, size: 0x8, addend: 0x0, symName: __ZNSt3__120__tree_is_left_childB7v160006IPNS_16__tree_node_baseIPvEEEEbT_, symObjAddr: 0x81FC, symBinAddr: 0x10000ABA4, symSize: 0x2C }
  - { offsetInCU: 0xF8FA, offset: 0xF8FA, size: 0x8, addend: 0x0, symName: __ZNSt3__118__tree_left_rotateB7v160006IPNS_16__tree_node_baseIPvEEEEvT_, symObjAddr: 0x8228, symBinAddr: 0x10000ABD0, symSize: 0xEC }
  - { offsetInCU: 0xF93C, offset: 0xF93C, size: 0x8, addend: 0x0, symName: __ZNSt3__119__tree_right_rotateB7v160006IPNS_16__tree_node_baseIPvEEEEvT_, symObjAddr: 0x8314, symBinAddr: 0x10000ACBC, symSize: 0xCC }
  - { offsetInCU: 0xF99C, offset: 0xF99C, size: 0x8, addend: 0x0, symName: __ZNSt3__112__to_addressB7v160006IcEEPT_S2_, symObjAddr: 0x8E38, symBinAddr: 0x10000B7E0, symSize: 0x14 }
  - { offsetInCU: 0xFC06, offset: 0xFC06, size: 0x8, addend: 0x0, symName: __ZNSt3__14copyB7v160006IPKcPcEET0_T_S5_S4_, symObjAddr: 0x93D0, symBinAddr: 0x10000BD78, symSize: 0x40 }
  - { offsetInCU: 0xFC60, offset: 0xFC60, size: 0x8, addend: 0x0, symName: __ZNSt3__16__copyB7v160006INS_17_ClassicAlgPolicyEPKcS3_PcEENS_4pairIT0_T2_EES6_T1_S7_, symObjAddr: 0x9410, symBinAddr: 0x10000BDB8, symSize: 0x44 }
  - { offsetInCU: 0xFCCC, offset: 0xFCCC, size: 0x8, addend: 0x0, symName: __ZNSt3__123__dispatch_copy_or_moveB7v160006INS_17_ClassicAlgPolicyENS_11__copy_loopIS1_EENS_14__copy_trivialEPKcS6_PcEENS_4pairIT2_T4_EES9_T3_SA_, symObjAddr: 0x9454, symBinAddr: 0x10000BDFC, symSize: 0x54 }
  - { offsetInCU: 0xFD4A, offset: 0xFD4A, size: 0x8, addend: 0x0, symName: __ZNSt3__121__unwrap_and_dispatchB7v160006INS_10__overloadINS_11__copy_loopINS_17_ClassicAlgPolicyEEENS_14__copy_trivialEEEPKcS8_PcLi0EEENS_4pairIT0_T2_EESB_T1_SC_, symObjAddr: 0x94A8, symBinAddr: 0x10000BE50, symSize: 0xB4 }
  - { offsetInCU: 0xFDD8, offset: 0xFDD8, size: 0x8, addend: 0x0, symName: __ZNSt3__114__unwrap_rangeB7v160006IPKcS2_EENS_4pairIT0_S4_EET_S6_, symObjAddr: 0x955C, symBinAddr: 0x10000BF04, symSize: 0x60 }
  - { offsetInCU: 0xFF17, offset: 0xFF17, size: 0x8, addend: 0x0, symName: __ZNSt3__113__unwrap_iterB7v160006IPcNS_18__unwrap_iter_implIS1_Lb1EEELi0EEEDTclsrT0_8__unwrapclsr3stdE7declvalIT_EEEES5_, symObjAddr: 0x9604, symBinAddr: 0x10000BFAC, symSize: 0x24 }
  - { offsetInCU: 0xFF5B, offset: 0xFF5B, size: 0x8, addend: 0x0, symName: __ZNSt3__19make_pairB7v160006IPKcPcEENS_4pairINS_18__unwrap_ref_decayIT_E4typeENS5_IT0_E4typeEEEOS6_OS9_, symObjAddr: 0x9628, symBinAddr: 0x10000BFD0, symSize: 0x38 }
  - { offsetInCU: 0xFFAA, offset: 0xFFAA, size: 0x8, addend: 0x0, symName: __ZNSt3__114__rewrap_rangeB7v160006IPKcS2_EET_S3_T0_, symObjAddr: 0x9660, symBinAddr: 0x10000C008, symSize: 0x2C }
  - { offsetInCU: 0xFFF6, offset: 0xFFF6, size: 0x8, addend: 0x0, symName: __ZNSt3__113__rewrap_iterB7v160006IPcS1_NS_18__unwrap_iter_implIS1_Lb1EEEEET_S4_T0_, symObjAddr: 0x968C, symBinAddr: 0x10000C034, symSize: 0x50 }
  - { offsetInCU: 0x1004B, offset: 0x1004B, size: 0x8, addend: 0x0, symName: __ZNSt3__19make_pairB7v160006IPKcS2_EENS_4pairINS_18__unwrap_ref_decayIT_E4typeENS4_IT0_E4typeEEEOS5_OS8_, symObjAddr: 0x96DC, symBinAddr: 0x10000C084, symSize: 0x38 }
  - { offsetInCU: 0x1009A, offset: 0x1009A, size: 0x8, addend: 0x0, symName: __ZNSt3__113__unwrap_iterB7v160006IPKcNS_18__unwrap_iter_implIS2_Lb1EEELi0EEEDTclsrT0_8__unwrapclsr3stdE7declvalIT_EEEES6_, symObjAddr: 0x9714, symBinAddr: 0x10000C0BC, symSize: 0x24 }
  - { offsetInCU: 0x101DE, offset: 0x101DE, size: 0x8, addend: 0x0, symName: __ZNSt3__119__copy_trivial_implB7v160006IKccEENS_4pairIPT_PT0_EES4_S4_S6_, symObjAddr: 0x97CC, symBinAddr: 0x10000C174, symSize: 0x7C }
  - { offsetInCU: 0x10246, offset: 0x10246, size: 0x8, addend: 0x0, symName: __ZNSt3__19make_pairB7v160006IRPKcPcEENS_4pairINS_18__unwrap_ref_decayIT_E4typeENS6_IT0_E4typeEEEOS7_OSA_, symObjAddr: 0x9848, symBinAddr: 0x10000C1F0, symSize: 0x38 }
  - { offsetInCU: 0x102E8, offset: 0x102E8, size: 0x8, addend: 0x0, symName: __ZNSt3__113__rewrap_iterB7v160006IPKcS2_NS_18__unwrap_iter_implIS2_Lb1EEEEET_S5_T0_, symObjAddr: 0x9914, symBinAddr: 0x10000C2BC, symSize: 0x50 }
  - { offsetInCU: 0x1033D, offset: 0x1033D, size: 0x8, addend: 0x0, symName: __ZNSt3__16fill_nB7v160006IPcmcEET_S2_T0_RKT1_, symObjAddr: 0x99F4, symBinAddr: 0x10000C39C, symSize: 0x44 }
  - { offsetInCU: 0x103A0, offset: 0x103A0, size: 0x8, addend: 0x0, symName: __ZNSt3__18__fill_nB7v160006IPcmcEET_S2_T0_RKT1_, symObjAddr: 0x9A38, symBinAddr: 0x10000C3E0, symSize: 0x64 }
  - { offsetInCU: 0x10403, offset: 0x10403, size: 0x8, addend: 0x0, symName: __ZNSt3__121__convert_to_integralB7v160006Em, symObjAddr: 0x9A9C, symBinAddr: 0x10000C444, symSize: 0x14 }
  - { offsetInCU: 0x1042F, offset: 0x1042F, size: 0x8, addend: 0x0, symName: __ZNSt3__125__debug_db_invalidate_allB7v160006INS_12basic_stringIcNS_11char_traitsIcEENS_9allocatorIcEEEEEEvPT_, symObjAddr: 0x9C04, symBinAddr: 0x10000C5AC, symSize: 0x10 }
  - { offsetInCU: 0x10460, offset: 0x10460, size: 0x8, addend: 0x0, symName: __ZNSt3__110__str_findB7v160006IcmNS_11char_traitsIcEELm18446744073709551615EEET0_PKT_S3_S6_S3_S3_, symObjAddr: 0x9C84, symBinAddr: 0x10000C62C, symSize: 0xE4 }
  - { offsetInCU: 0x10507, offset: 0x10507, size: 0x8, addend: 0x0, symName: __ZNSt3__118__search_substringB7v160006IcNS_11char_traitsIcEEEEPKT_S5_S5_S5_S5_, symObjAddr: 0x9D68, symBinAddr: 0x10000C710, symSize: 0x154 }
  - { offsetInCU: 0x105A1, offset: 0x105A1, size: 0x8, addend: 0x0, symName: __ZNSt3__123__constexpr_char_memchrB7v160006EPKcim, symObjAddr: 0x9FC0, symBinAddr: 0x10000C968, symSize: 0x34 }
  - { offsetInCU: 0x105E9, offset: 0x105E9, size: 0x8, addend: 0x0, symName: __ZNSt3__118__constexpr_memcmpB7v160006IcEEiPKT_S3_m, symObjAddr: 0x9FF4, symBinAddr: 0x10000C99C, symSize: 0x34 }
  - { offsetInCU: 0x1063A, offset: 0x1063A, size: 0x8, addend: 0x0, symName: __ZNSt3__1miB7v160006IPKiS2_EENS_11__wrap_iterIT_E15difference_typeERKS5_RKNS3_IT0_EE, symObjAddr: 0xA0E4, symBinAddr: 0x10000CA8C, symSize: 0x48 }
  - { offsetInCU: 0x10686, offset: 0x10686, size: 0x8, addend: 0x0, symName: __ZNSt3__14moveB7v160006IPiS1_EET0_T_S3_S2_, symObjAddr: 0xA1E0, symBinAddr: 0x10000CB88, symSize: 0x40 }
  - { offsetInCU: 0x106E0, offset: 0x106E0, size: 0x8, addend: 0x0, symName: __ZNSt3__16__moveB7v160006INS_17_ClassicAlgPolicyEPiS2_S2_EENS_4pairIT0_T2_EES4_T1_S5_, symObjAddr: 0xA3C4, symBinAddr: 0x10000CD6C, symSize: 0x44 }
  - { offsetInCU: 0x1074C, offset: 0x1074C, size: 0x8, addend: 0x0, symName: __ZNSt3__123__dispatch_copy_or_moveB7v160006INS_17_ClassicAlgPolicyENS_11__move_loopIS1_EENS_14__move_trivialEPiS5_S5_EENS_4pairIT2_T4_EES7_T3_S8_, symObjAddr: 0xA408, symBinAddr: 0x10000CDB0, symSize: 0x54 }
  - { offsetInCU: 0x107CA, offset: 0x107CA, size: 0x8, addend: 0x0, symName: __ZNSt3__121__unwrap_and_dispatchB7v160006INS_10__overloadINS_11__move_loopINS_17_ClassicAlgPolicyEEENS_14__move_trivialEEEPiS7_S7_Li0EEENS_4pairIT0_T2_EES9_T1_SA_, symObjAddr: 0xA45C, symBinAddr: 0x10000CE04, symSize: 0xB4 }
  - { offsetInCU: 0x10858, offset: 0x10858, size: 0x8, addend: 0x0, symName: __ZNSt3__114__unwrap_rangeB7v160006IPiS1_EENS_4pairIT0_S3_EET_S5_, symObjAddr: 0xA510, symBinAddr: 0x10000CEB8, symSize: 0x60 }
  - { offsetInCU: 0x10997, offset: 0x10997, size: 0x8, addend: 0x0, symName: __ZNSt3__113__unwrap_iterB7v160006IPiNS_18__unwrap_iter_implIS1_Lb1EEELi0EEEDTclsrT0_8__unwrapclsr3stdE7declvalIT_EEEES5_, symObjAddr: 0xA5B8, symBinAddr: 0x10000CF60, symSize: 0x24 }
  - { offsetInCU: 0x109DB, offset: 0x109DB, size: 0x8, addend: 0x0, symName: __ZNSt3__19make_pairB7v160006IPiS1_EENS_4pairINS_18__unwrap_ref_decayIT_E4typeENS3_IT0_E4typeEEEOS4_OS7_, symObjAddr: 0xA5DC, symBinAddr: 0x10000CF84, symSize: 0x38 }
  - { offsetInCU: 0x10A2A, offset: 0x10A2A, size: 0x8, addend: 0x0, symName: __ZNSt3__114__rewrap_rangeB7v160006IPiS1_EET_S2_T0_, symObjAddr: 0xA614, symBinAddr: 0x10000CFBC, symSize: 0x2C }
  - { offsetInCU: 0x10A76, offset: 0x10A76, size: 0x8, addend: 0x0, symName: __ZNSt3__113__rewrap_iterB7v160006IPiS1_NS_18__unwrap_iter_implIS1_Lb1EEEEET_S4_T0_, symObjAddr: 0xA640, symBinAddr: 0x10000CFE8, symSize: 0x50 }
  - { offsetInCU: 0x10ACB, offset: 0x10ACB, size: 0x8, addend: 0x0, symName: __ZNSt3__119__copy_trivial_implB7v160006IiiEENS_4pairIPT_PT0_EES3_S3_S5_, symObjAddr: 0xA690, symBinAddr: 0x10000D038, symSize: 0x84 }
  - { offsetInCU: 0x10B33, offset: 0x10B33, size: 0x8, addend: 0x0, symName: __ZNSt3__19make_pairB7v160006IRPiS1_EENS_4pairINS_18__unwrap_ref_decayIT_E4typeENS4_IT0_E4typeEEEOS5_OS8_, symObjAddr: 0xA714, symBinAddr: 0x10000D0BC, symSize: 0x38 }
  - { offsetInCU: 0x10BD5, offset: 0x10BD5, size: 0x8, addend: 0x0, symName: __ZNSt3__1eqB7v160006IP7ChannelEEbRKNS_11__wrap_iterIT_EES7_, symObjAddr: 0xA91C, symBinAddr: 0x10000D2C4, symSize: 0x48 }
  - { offsetInCU: 0x10C18, offset: 0x10C18, size: 0x8, addend: 0x0, symName: __ZNSt3__118__debug_db_erase_cB7v160006INS_6vectorIP4UserNS_9allocatorIS3_EEEEEEvPT_, symObjAddr: 0xAB80, symBinAddr: 0x10000D528, symSize: 0x10 }
  - { offsetInCU: 0x10C49, offset: 0x10C49, size: 0x8, addend: 0x0, symName: __ZNSt3__112__to_addressB7v160006IP4UserEEPT_S4_, symObjAddr: 0xACC4, symBinAddr: 0x10000D66C, symSize: 0x14 }
  - { offsetInCU: 0x10C7E, offset: 0x10C7E, size: 0x8, addend: 0x0, symName: __ZNSt3__1eqB7v160006IPP4UserEEbRKNS_11__wrap_iterIT_EES8_, symObjAddr: 0xAF54, symBinAddr: 0x10000D8FC, symSize: 0x48 }
  - { offsetInCU: 0x10CC1, offset: 0x10CC1, size: 0x8, addend: 0x0, symName: __ZNSt3__1eqB7v160006ERKNS_15__tree_iteratorINS_12__value_typeIi4UserEEPNS_11__tree_nodeIS3_PvEElEESA_, symObjAddr: 0xB16C, symBinAddr: 0x10000DB14, symSize: 0x30 }
  - { offsetInCU: 0x10CFE, offset: 0x10CFE, size: 0x8, addend: 0x0, symName: __ZNSt3__1neB7v160006ERKNS_15__tree_iteratorINS_12__value_typeIi4UserEEPNS_11__tree_nodeIS3_PvEElEESA_, symObjAddr: 0xB340, symBinAddr: 0x10000DCE8, symSize: 0x34 }
  - { offsetInCU: 0x10D3B, offset: 0x10D3B, size: 0x8, addend: 0x0, symName: __ZNSt3__113__tree_removeB7v160006IPNS_16__tree_node_baseIPvEEEEvT_S5_, symObjAddr: 0xB548, symBinAddr: 0x10000DEF0, symSize: 0x6E0 }
  - { offsetInCU: 0x10DB9, offset: 0x10DB9, size: 0x8, addend: 0x0, symName: __ZNSt3__116__tree_next_iterB7v160006IPNS_15__tree_end_nodeIPNS_16__tree_node_baseIPvEEEES5_EET_T0_, symObjAddr: 0xBC28, symBinAddr: 0x10000E5D0, symSize: 0x80 }
  - { offsetInCU: 0x10DF7, offset: 0x10DF7, size: 0x8, addend: 0x0, symName: __ZNSt3__110__tree_minB7v160006IPNS_16__tree_node_baseIPvEEEET_S5_, symObjAddr: 0xBCA8, symBinAddr: 0x10000E650, symSize: 0x40 }
  - { offsetInCU: 0x10E2C, offset: 0x10E2C, size: 0x8, addend: 0x0, symName: __ZNSt3__111__tree_nextB7v160006IPNS_16__tree_node_baseIPvEEEET_S5_, symObjAddr: 0xBCE8, symBinAddr: 0x10000E690, symSize: 0x80 }
  - { offsetInCU: 0x11095, offset: 0x11095, size: 0x8, addend: 0x0, symName: __ZSt28__throw_bad_array_new_lengthB7v160006v, symObjAddr: 0x3640, symBinAddr: 0x100005FE8, symSize: 0x34 }
  - { offsetInCU: 0x123A6, offset: 0x123A6, size: 0x8, addend: 0x0, symName: __ZNSt3__16vectorIiNS_9allocatorIiEEE26__swap_out_circular_bufferERNS_14__split_bufferIiRS2_EE, symObjAddr: 0x5D94, symBinAddr: 0x10000873C, symSize: 0x118 }
  - { offsetInCU: 0x14A52, offset: 0x14A52, size: 0x8, addend: 0x0, symName: __ZN6Server11setPasswordENSt3__112basic_stringIcNS0_11char_traitsIcEENS0_9allocatorIcEEEE, symObjAddr: 0x0, symBinAddr: 0x1000029A8, symSize: 0x30 }
  - { offsetInCU: 0x14A89, offset: 0x14A89, size: 0x8, addend: 0x0, symName: __ZN6Server11getPasswordEv, symObjAddr: 0x30, symBinAddr: 0x1000029D8, symSize: 0x3C }
  - { offsetInCU: 0x14AB1, offset: 0x14AB1, size: 0x8, addend: 0x0, symName: __ZN6ServerC2Ei, symObjAddr: 0x6C, symBinAddr: 0x100002A14, symSize: 0x368 }
  - { offsetInCU: 0x14AEB, offset: 0x14AEB, size: 0x8, addend: 0x0, symName: __ZNSt3__13mapIiNS_12basic_stringIcNS_11char_traitsIcEENS_9allocatorIcEEEENS_4lessIiEENS4_INS_4pairIKiS6_EEEEEC1B7v160006Ev, symObjAddr: 0x3D4, symBinAddr: 0x100002D7C, symSize: 0x2C }
  - { offsetInCU: 0x14B15, offset: 0x14B15, size: 0x8, addend: 0x0, symName: __ZNSt3__112basic_stringIcNS_11char_traitsIcEENS_9allocatorIcEEEC1B7v160006Ev, symObjAddr: 0x400, symBinAddr: 0x100002DA8, symSize: 0x2C }
  - { offsetInCU: 0x14B3F, offset: 0x14B3F, size: 0x8, addend: 0x0, symName: __ZNSt3__13mapIi4UserNS_4lessIiEENS_9allocatorINS_4pairIKiS1_EEEEEC1B7v160006Ev, symObjAddr: 0x42C, symBinAddr: 0x100002DD4, symSize: 0x2C }
  - { offsetInCU: 0x14B69, offset: 0x14B69, size: 0x8, addend: 0x0, symName: __ZN8CommandsC1Ev, symObjAddr: 0x458, symBinAddr: 0x100002E00, symSize: 0x2C }
  - { offsetInCU: 0x14B95, offset: 0x14B95, size: 0x8, addend: 0x0, symName: __ZNSt3__16vectorI7ChannelNS_9allocatorIS1_EEEC1B7v160006Ev, symObjAddr: 0x484, symBinAddr: 0x100002E2C, symSize: 0x2C }
  - { offsetInCU: 0x14BBF, offset: 0x14BBF, size: 0x8, addend: 0x0, symName: __ZNSt3__113basic_ostreamIcNS_11char_traitsIcEEElsB7v160006EPFRS3_S4_E, symObjAddr: 0x4F8, symBinAddr: 0x100002EA0, symSize: 0x2C }
  - { offsetInCU: 0x14BF3, offset: 0x14BF3, size: 0x8, addend: 0x0, symName: __ZL12_OSSwapInt16t, symObjAddr: 0x57C, symBinAddr: 0x100002F24, symSize: 0x24 }
  - { offsetInCU: 0x14C20, offset: 0x14C20, size: 0x8, addend: 0x0, symName: __ZNSt3__16vectorI7ChannelNS_9allocatorIS1_EEED1B7v160006Ev, symObjAddr: 0x5A0, symBinAddr: 0x100002F48, symSize: 0x2C }
  - { offsetInCU: 0x14C4A, offset: 0x14C4A, size: 0x8, addend: 0x0, symName: __ZN8CommandsD1Ev, symObjAddr: 0x5D8, symBinAddr: 0x100002F80, symSize: 0x2C }
  - { offsetInCU: 0x14C76, offset: 0x14C76, size: 0x8, addend: 0x0, symName: __ZNSt3__13mapIi4UserNS_4lessIiEENS_9allocatorINS_4pairIKiS1_EEEEED1B7v160006Ev, symObjAddr: 0x604, symBinAddr: 0x100002FAC, symSize: 0x2C }
  - { offsetInCU: 0x14CA0, offset: 0x14CA0, size: 0x8, addend: 0x0, symName: __ZNSt3__13mapIiNS_12basic_stringIcNS_11char_traitsIcEENS_9allocatorIcEEEENS_4lessIiEENS4_INS_4pairIKiS6_EEEEED1B7v160006Ev, symObjAddr: 0x630, symBinAddr: 0x100002FD8, symSize: 0x2C }
  - { offsetInCU: 0x14CCA, offset: 0x14CCA, size: 0x8, addend: 0x0, symName: __ZN6ServerC1Ei, symObjAddr: 0x65C, symBinAddr: 0x100003004, symSize: 0x34 }
  - { offsetInCU: 0x14DAC, offset: 0x14DAC, size: 0x8, addend: 0x0, symName: __ZN6Server5StartEv, symObjAddr: 0x690, symBinAddr: 0x100003038, symSize: 0xD54 }
  - { offsetInCU: 0x1506D, offset: 0x1506D, size: 0x8, addend: 0x0, symName: __ZNSt3__16vectorIiNS_9allocatorIiEEEC1B7v160006Ev, symObjAddr: 0x13E4, symBinAddr: 0x100003D8C, symSize: 0x2C }
  - { offsetInCU: 0x1509C, offset: 0x1509C, size: 0x8, addend: 0x0, symName: __ZNSt3__112basic_stringIcNS_11char_traitsIcEENS_9allocatorIcEEEC1B7v160006IDnEEPKc, symObjAddr: 0x1410, symBinAddr: 0x100003DB8, symSize: 0x34 }
  - { offsetInCU: 0x150DA, offset: 0x150DA, size: 0x8, addend: 0x0, symName: __ZNKSt3__16vectorIiNS_9allocatorIiEEE4sizeB7v160006Ev, symObjAddr: 0x1444, symBinAddr: 0x100003DEC, symSize: 0x28 }
  - { offsetInCU: 0x15100, offset: 0x15100, size: 0x8, addend: 0x0, symName: __ZNSt3__16vectorIiNS_9allocatorIiEEEixB7v160006Em, symObjAddr: 0x146C, symBinAddr: 0x100003E14, symSize: 0x24 }
  - { offsetInCU: 0x15137, offset: 0x15137, size: 0x8, addend: 0x0, symName: __ZNSt3__16vectorIiNS_9allocatorIiEEE9push_backB7v160006ERKi, symObjAddr: 0x1490, symBinAddr: 0x100003E38, symSize: 0x6C }
  - { offsetInCU: 0x1516E, offset: 0x1516E, size: 0x8, addend: 0x0, symName: __ZNSt3__13mapIi4UserNS_4lessIiEENS_9allocatorINS_4pairIKiS1_EEEEE6insertB7v160006ERKS7_, symObjAddr: 0x14FC, symBinAddr: 0x100003EA4, symSize: 0x4C }
  - { offsetInCU: 0x151BC, offset: 0x151BC, size: 0x8, addend: 0x0, symName: __ZNSt3__14pairIKi4UserEC1B7v160006IiS2_EERKNS0_IT_T0_EE, symObjAddr: 0x1588, symBinAddr: 0x100003F30, symSize: 0x34 }
  - { offsetInCU: 0x15206, offset: 0x15206, size: 0x8, addend: 0x0, symName: __ZNSt3__14pairIKi4UserED1Ev, symObjAddr: 0x15BC, symBinAddr: 0x100003F64, symSize: 0x2C }
  - { offsetInCU: 0x15232, offset: 0x15232, size: 0x8, addend: 0x0, symName: __ZNSt3__14pairIi4UserED1Ev, symObjAddr: 0x15E8, symBinAddr: 0x100003F90, symSize: 0x2C }
  - { offsetInCU: 0x1525E, offset: 0x1525E, size: 0x8, addend: 0x0, symName: __ZN4UserD1Ev, symObjAddr: 0x1614, symBinAddr: 0x100003FBC, symSize: 0x2C }
  - { offsetInCU: 0x1528A, offset: 0x1528A, size: 0x8, addend: 0x0, symName: __ZNSt3__13mapIi4UserNS_4lessIiEENS_9allocatorINS_4pairIKiS1_EEEEEixERS6_, symObjAddr: 0x1640, symBinAddr: 0x100003FE8, symSize: 0xC8 }
  - { offsetInCU: 0x15303, offset: 0x15303, size: 0x8, addend: 0x0, symName: __ZNKSt3__112basic_stringIcNS_11char_traitsIcEENS_9allocatorIcEEE4sizeB7v160006Ev, symObjAddr: 0x1824, symBinAddr: 0x1000041CC, symSize: 0x54 }
  - { offsetInCU: 0x15329, offset: 0x15329, size: 0x8, addend: 0x0, symName: __ZNSt3__112basic_stringIcNS_11char_traitsIcEENS_9allocatorIcEEEixB7v160006Em, symObjAddr: 0x1878, symBinAddr: 0x100004220, symSize: 0x30 }
  - { offsetInCU: 0x1535E, offset: 0x1535E, size: 0x8, addend: 0x0, symName: __ZNSt3__112basic_stringIcNS_11char_traitsIcEENS_9allocatorIcEEE3endB7v160006Ev, symObjAddr: 0x18A8, symBinAddr: 0x100004250, symSize: 0x78 }
  - { offsetInCU: 0x15384, offset: 0x15384, size: 0x8, addend: 0x0, symName: __ZNKSt3__111__wrap_iterIPcEmiB7v160006El, symObjAddr: 0x1920, symBinAddr: 0x1000042C8, symSize: 0x3C }
  - { offsetInCU: 0x153B8, offset: 0x153B8, size: 0x8, addend: 0x0, symName: __ZNKSt3__111__wrap_iterIPcEdeB7v160006Ev, symObjAddr: 0x195C, symBinAddr: 0x100004304, symSize: 0x18 }
  - { offsetInCU: 0x153DE, offset: 0x153DE, size: 0x8, addend: 0x0, symName: __ZN6Server3CmdENSt3__112basic_stringIcNS0_11char_traitsIcEENS0_9allocatorIcEEEEiS6_, symObjAddr: 0x1974, symBinAddr: 0x10000431C, symSize: 0xE0 }
  - { offsetInCU: 0x15432, offset: 0x15432, size: 0x8, addend: 0x0, symName: __ZNSt3__112basic_stringIcNS_11char_traitsIcEENS_9allocatorIcEEE5clearB7v160006Ev, symObjAddr: 0x1B88, symBinAddr: 0x100004530, symSize: 0x9C }
  - { offsetInCU: 0x1545A, offset: 0x1545A, size: 0x8, addend: 0x0, symName: __ZNSt3__112basic_stringIcNS_11char_traitsIcEENS_9allocatorIcEEEpLB7v160006ERKS5_, symObjAddr: 0x1C24, symBinAddr: 0x1000045CC, symSize: 0x2C }
  - { offsetInCU: 0x1548F, offset: 0x1548F, size: 0x8, addend: 0x0, symName: __ZNKSt3__112basic_stringIcNS_11char_traitsIcEENS_9allocatorIcEEE4findB7v160006EPKcm, symObjAddr: 0x1C50, symBinAddr: 0x1000045F8, symSize: 0x74 }
  - { offsetInCU: 0x154D5, offset: 0x154D5, size: 0x8, addend: 0x0, symName: __ZN6Server11resetServerEi, symObjAddr: 0x1CC4, symBinAddr: 0x10000466C, symSize: 0x36C }
  - { offsetInCU: 0x1553D, offset: 0x1553D, size: 0x8, addend: 0x0, symName: __ZNSt3__16vectorIiNS_9allocatorIiEEE5eraseB7v160006ENS_11__wrap_iterIPKiEE, symObjAddr: 0x2030, symBinAddr: 0x1000049D8, symSize: 0xB4 }
  - { offsetInCU: 0x15592, offset: 0x15592, size: 0x8, addend: 0x0, symName: __ZNSt3__16vectorIiNS_9allocatorIiEEE5beginB7v160006Ev, symObjAddr: 0x20E4, symBinAddr: 0x100004A8C, symSize: 0x30 }
  - { offsetInCU: 0x155BA, offset: 0x155BA, size: 0x8, addend: 0x0, symName: __ZNKSt3__111__wrap_iterIPiEplB7v160006El, symObjAddr: 0x2114, symBinAddr: 0x100004ABC, symSize: 0x3C }
  - { offsetInCU: 0x15606, offset: 0x15606, size: 0x8, addend: 0x0, symName: __ZNSt3__111__wrap_iterIPKiEC1B7v160006IPiEERKNS0_IT_EEPNS_9enable_ifIXsr14is_convertibleIS6_S2_EE5valueEvE4typeE, symObjAddr: 0x2150, symBinAddr: 0x100004AF8, symSize: 0x3C }
  - { offsetInCU: 0x15652, offset: 0x15652, size: 0x8, addend: 0x0, symName: __ZNSt3__16vectorIiNS_9allocatorIiEEED1B7v160006Ev, symObjAddr: 0x218C, symBinAddr: 0x100004B34, symSize: 0x2C }
  - { offsetInCU: 0x1567C, offset: 0x1567C, size: 0x8, addend: 0x0, symName: __ZNSt3__16vectorI7ChannelNS_9allocatorIS1_EEE5beginB7v160006Ev, symObjAddr: 0x21B8, symBinAddr: 0x100004B60, symSize: 0x30 }
  - { offsetInCU: 0x156A4, offset: 0x156A4, size: 0x8, addend: 0x0, symName: __ZNSt3__16vectorI7ChannelNS_9allocatorIS1_EEE3endB7v160006Ev, symObjAddr: 0x221C, symBinAddr: 0x100004BC4, symSize: 0x30 }
  - { offsetInCU: 0x156CC, offset: 0x156CC, size: 0x8, addend: 0x0, symName: __ZNKSt3__111__wrap_iterIP7ChannelEdeB7v160006Ev, symObjAddr: 0x224C, symBinAddr: 0x100004BF4, symSize: 0x18 }
  - { offsetInCU: 0x156F2, offset: 0x156F2, size: 0x8, addend: 0x0, symName: __ZNKSt3__111__wrap_iterIP7ChannelEptB7v160006Ev, symObjAddr: 0x2264, symBinAddr: 0x100004C0C, symSize: 0x28 }
  - { offsetInCU: 0x15718, offset: 0x15718, size: 0x8, addend: 0x0, symName: __ZNSt3__16vectorIP4UserNS_9allocatorIS2_EEE5beginB7v160006Ev, symObjAddr: 0x228C, symBinAddr: 0x100004C34, symSize: 0x30 }
  - { offsetInCU: 0x15740, offset: 0x15740, size: 0x8, addend: 0x0, symName: __ZNSt3__16vectorIP4UserNS_9allocatorIS2_EEE3endB7v160006Ev, symObjAddr: 0x22F0, symBinAddr: 0x100004C98, symSize: 0x30 }
  - { offsetInCU: 0x15768, offset: 0x15768, size: 0x8, addend: 0x0, symName: __ZNKSt3__111__wrap_iterIPP4UserEdeB7v160006Ev, symObjAddr: 0x2320, symBinAddr: 0x100004CC8, symSize: 0x18 }
  - { offsetInCU: 0x1578E, offset: 0x1578E, size: 0x8, addend: 0x0, symName: __ZNSt3__111__wrap_iterIPP4UserEppB7v160006Ei, symObjAddr: 0x2338, symBinAddr: 0x100004CE0, symSize: 0x34 }
  - { offsetInCU: 0x157CD, offset: 0x157CD, size: 0x8, addend: 0x0, symName: __ZNSt3__16vectorIP4UserNS_9allocatorIS2_EEED1B7v160006Ev, symObjAddr: 0x236C, symBinAddr: 0x100004D14, symSize: 0x2C }
  - { offsetInCU: 0x157F7, offset: 0x157F7, size: 0x8, addend: 0x0, symName: __ZNSt3__111__wrap_iterIP7ChannelEppB7v160006Ei, symObjAddr: 0x2398, symBinAddr: 0x100004D40, symSize: 0x34 }
  - { offsetInCU: 0x15836, offset: 0x15836, size: 0x8, addend: 0x0, symName: __ZNSt3__13mapIi4UserNS_4lessIiEENS_9allocatorINS_4pairIKiS1_EEEEE5eraseB7v160006ERS6_, symObjAddr: 0x23CC, symBinAddr: 0x100004D74, symSize: 0x2C }
  - { offsetInCU: 0x1586B, offset: 0x1586B, size: 0x8, addend: 0x0, symName: __ZN8CommandsC2Ev, symObjAddr: 0x23F8, symBinAddr: 0x100004DA0, symSize: 0x68 }
  - { offsetInCU: 0x15897, offset: 0x15897, size: 0x8, addend: 0x0, symName: __ZNSt3__16vectorINS_12basic_stringIcNS_11char_traitsIcEENS_9allocatorIcEEEENS4_IS6_EEEC1B7v160006Ev, symObjAddr: 0x2460, symBinAddr: 0x100004E08, symSize: 0x2C }
  - { offsetInCU: 0x158C1, offset: 0x158C1, size: 0x8, addend: 0x0, symName: __ZNSt3__16vectorINS_12basic_stringIcNS_11char_traitsIcEENS_9allocatorIcEEEENS4_IS6_EEEC2B7v160006Ev, symObjAddr: 0x248C, symBinAddr: 0x100004E34, symSize: 0x4C }
  - { offsetInCU: 0x158F5, offset: 0x158F5, size: 0x8, addend: 0x0, symName: __ZNSt3__117__compressed_pairIPNS_12basic_stringIcNS_11char_traitsIcEENS_9allocatorIcEEEENS4_IS6_EEEC1B7v160006IDnNS_18__default_init_tagEEEOT_OT0_, symObjAddr: 0x24D8, symBinAddr: 0x100004E80, symSize: 0x3C }
  - { offsetInCU: 0x1594D, offset: 0x1594D, size: 0x8, addend: 0x0, symName: __ZNSt3__117__compressed_pairIPNS_12basic_stringIcNS_11char_traitsIcEENS_9allocatorIcEEEENS4_IS6_EEEC2B7v160006IDnNS_18__default_init_tagEEEOT_OT0_, symObjAddr: 0x2524, symBinAddr: 0x100004ECC, symSize: 0x40 }
  - { offsetInCU: 0x159A5, offset: 0x159A5, size: 0x8, addend: 0x0, symName: __ZNSt3__122__compressed_pair_elemIPNS_12basic_stringIcNS_11char_traitsIcEENS_9allocatorIcEEEELi0ELb0EEC2B7v160006IDnvEEOT_, symObjAddr: 0x2564, symBinAddr: 0x100004F0C, symSize: 0x1C }
  - { offsetInCU: 0x159E7, offset: 0x159E7, size: 0x8, addend: 0x0, symName: __ZNSt3__122__compressed_pair_elemINS_9allocatorINS_12basic_stringIcNS_11char_traitsIcEENS1_IcEEEEEELi1ELb1EEC2B7v160006ENS_18__default_init_tagE, symObjAddr: 0x2580, symBinAddr: 0x100004F28, symSize: 0x2C }
  - { offsetInCU: 0x15A1C, offset: 0x15A1C, size: 0x8, addend: 0x0, symName: __ZNSt3__19allocatorINS_12basic_stringIcNS_11char_traitsIcEENS0_IcEEEEEC2B7v160006Ev, symObjAddr: 0x25AC, symBinAddr: 0x100004F54, symSize: 0x2C }
  - { offsetInCU: 0x15A46, offset: 0x15A46, size: 0x8, addend: 0x0, symName: __ZNSt3__116__non_trivial_ifILb1ENS_9allocatorINS_12basic_stringIcNS_11char_traitsIcEENS1_IcEEEEEEEC2B7v160006Ev, symObjAddr: 0x25D8, symBinAddr: 0x100004F80, symSize: 0x14 }
  - { offsetInCU: 0x15A70, offset: 0x15A70, size: 0x8, addend: 0x0, symName: __ZN8CommandsD2Ev, symObjAddr: 0x25EC, symBinAddr: 0x100004F94, symSize: 0x68 }
  - { offsetInCU: 0x15A9C, offset: 0x15A9C, size: 0x8, addend: 0x0, symName: __ZNSt3__16vectorINS_12basic_stringIcNS_11char_traitsIcEENS_9allocatorIcEEEENS4_IS6_EEED1B7v160006Ev, symObjAddr: 0x2654, symBinAddr: 0x100004FFC, symSize: 0x2C }
  - { offsetInCU: 0x15AC6, offset: 0x15AC6, size: 0x8, addend: 0x0, symName: __ZNSt3__16vectorINS_12basic_stringIcNS_11char_traitsIcEENS_9allocatorIcEEEENS4_IS6_EEED2B7v160006Ev, symObjAddr: 0x2680, symBinAddr: 0x100005028, symSize: 0x3C }
  - { offsetInCU: 0x15AF0, offset: 0x15AF0, size: 0x8, addend: 0x0, symName: __ZNSt3__16vectorINS_12basic_stringIcNS_11char_traitsIcEENS_9allocatorIcEEEENS4_IS6_EEE16__destroy_vectorC1ERS8_, symObjAddr: 0x26BC, symBinAddr: 0x100005064, symSize: 0x34 }
  - { offsetInCU: 0x15B29, offset: 0x15B29, size: 0x8, addend: 0x0, symName: __ZNSt3__16vectorINS_12basic_stringIcNS_11char_traitsIcEENS_9allocatorIcEEEENS4_IS6_EEE16__destroy_vectorclB7v160006Ev, symObjAddr: 0x26F0, symBinAddr: 0x100005098, symSize: 0x9C }
  - { offsetInCU: 0x15B4F, offset: 0x15B4F, size: 0x8, addend: 0x0, symName: __ZNSt3__16vectorINS_12basic_stringIcNS_11char_traitsIcEENS_9allocatorIcEEEENS4_IS6_EEE16__destroy_vectorC2ERS8_, symObjAddr: 0x278C, symBinAddr: 0x100005134, symSize: 0x20 }
  - { offsetInCU: 0x15B88, offset: 0x15B88, size: 0x8, addend: 0x0, symName: __ZNKSt3__16vectorINS_12basic_stringIcNS_11char_traitsIcEENS_9allocatorIcEEEENS4_IS6_EEE17__annotate_deleteB7v160006Ev, symObjAddr: 0x27AC, symBinAddr: 0x100005154, symSize: 0xD4 }
  - { offsetInCU: 0x15BAE, offset: 0x15BAE, size: 0x8, addend: 0x0, symName: __ZNSt3__16vectorINS_12basic_stringIcNS_11char_traitsIcEENS_9allocatorIcEEEENS4_IS6_EEE7__clearB7v160006Ev, symObjAddr: 0x2890, symBinAddr: 0x100005238, symSize: 0x28 }
  - { offsetInCU: 0x15BD4, offset: 0x15BD4, size: 0x8, addend: 0x0, symName: __ZNSt3__116allocator_traitsINS_9allocatorINS_12basic_stringIcNS_11char_traitsIcEENS1_IcEEEEEEE10deallocateB7v160006ERS7_PS6_m, symObjAddr: 0x28B8, symBinAddr: 0x100005260, symSize: 0x34 }
  - { offsetInCU: 0x15C16, offset: 0x15C16, size: 0x8, addend: 0x0, symName: __ZNSt3__16vectorINS_12basic_stringIcNS_11char_traitsIcEENS_9allocatorIcEEEENS4_IS6_EEE7__allocB7v160006Ev, symObjAddr: 0x28EC, symBinAddr: 0x100005294, symSize: 0x28 }
  - { offsetInCU: 0x15C3C, offset: 0x15C3C, size: 0x8, addend: 0x0, symName: __ZNKSt3__16vectorINS_12basic_stringIcNS_11char_traitsIcEENS_9allocatorIcEEEENS4_IS6_EEE8capacityB7v160006Ev, symObjAddr: 0x2914, symBinAddr: 0x1000052BC, symSize: 0x40 }
  - { offsetInCU: 0x15C62, offset: 0x15C62, size: 0x8, addend: 0x0, symName: __ZNKSt3__16vectorINS_12basic_stringIcNS_11char_traitsIcEENS_9allocatorIcEEEENS4_IS6_EEE31__annotate_contiguous_containerB7v160006EPKvSA_SA_SA_, symObjAddr: 0x2954, symBinAddr: 0x1000052FC, symSize: 0x20 }
  - { offsetInCU: 0x15CB4, offset: 0x15CB4, size: 0x8, addend: 0x0, symName: __ZNKSt3__16vectorINS_12basic_stringIcNS_11char_traitsIcEENS_9allocatorIcEEEENS4_IS6_EEE4dataB7v160006Ev, symObjAddr: 0x2974, symBinAddr: 0x10000531C, symSize: 0x28 }
  - { offsetInCU: 0x15CDA, offset: 0x15CDA, size: 0x8, addend: 0x0, symName: __ZNKSt3__16vectorINS_12basic_stringIcNS_11char_traitsIcEENS_9allocatorIcEEEENS4_IS6_EEE4sizeB7v160006Ev, symObjAddr: 0x299C, symBinAddr: 0x100005344, symSize: 0x28 }
  - { offsetInCU: 0x15D00, offset: 0x15D00, size: 0x8, addend: 0x0, symName: __ZNSt3__16vectorINS_12basic_stringIcNS_11char_traitsIcEENS_9allocatorIcEEEENS4_IS6_EEE22__base_destruct_at_endB7v160006EPS6_, symObjAddr: 0x29D8, symBinAddr: 0x100005380, symSize: 0xA0 }
  - { offsetInCU: 0x15D44, offset: 0x15D44, size: 0x8, addend: 0x0, symName: __ZNSt3__116allocator_traitsINS_9allocatorINS_12basic_stringIcNS_11char_traitsIcEENS1_IcEEEEEEE7destroyB7v160006IS6_vEEvRS7_PT_, symObjAddr: 0x2A78, symBinAddr: 0x100005420, symSize: 0x2C }
  - { offsetInCU: 0x15D81, offset: 0x15D81, size: 0x8, addend: 0x0, symName: __ZNSt3__19allocatorINS_12basic_stringIcNS_11char_traitsIcEENS0_IcEEEEE7destroyB7v160006EPS5_, symObjAddr: 0x2AA4, symBinAddr: 0x10000544C, symSize: 0x28 }
  - { offsetInCU: 0x15DB5, offset: 0x15DB5, size: 0x8, addend: 0x0, symName: __ZNSt3__19allocatorINS_12basic_stringIcNS_11char_traitsIcEENS0_IcEEEEE10deallocateB7v160006EPS5_m, symObjAddr: 0x2ACC, symBinAddr: 0x100005474, symSize: 0x74 }
  - { offsetInCU: 0x15DF7, offset: 0x15DF7, size: 0x8, addend: 0x0, symName: __ZNSt3__117__compressed_pairIPNS_12basic_stringIcNS_11char_traitsIcEENS_9allocatorIcEEEENS4_IS6_EEE6secondB7v160006Ev, symObjAddr: 0x2BC8, symBinAddr: 0x100005570, symSize: 0x24 }
  - { offsetInCU: 0x15E1D, offset: 0x15E1D, size: 0x8, addend: 0x0, symName: __ZNSt3__122__compressed_pair_elemINS_9allocatorINS_12basic_stringIcNS_11char_traitsIcEENS1_IcEEEEEELi1ELb1EE5__getB7v160006Ev, symObjAddr: 0x2BEC, symBinAddr: 0x100005594, symSize: 0x14 }
  - { offsetInCU: 0x15E43, offset: 0x15E43, size: 0x8, addend: 0x0, symName: __ZNKSt3__16vectorINS_12basic_stringIcNS_11char_traitsIcEENS_9allocatorIcEEEENS4_IS6_EEE9__end_capB7v160006Ev, symObjAddr: 0x2C00, symBinAddr: 0x1000055A8, symSize: 0x28 }
  - { offsetInCU: 0x15E69, offset: 0x15E69, size: 0x8, addend: 0x0, symName: __ZNKSt3__117__compressed_pairIPNS_12basic_stringIcNS_11char_traitsIcEENS_9allocatorIcEEEENS4_IS6_EEE5firstB7v160006Ev, symObjAddr: 0x2C28, symBinAddr: 0x1000055D0, symSize: 0x24 }
  - { offsetInCU: 0x15E8F, offset: 0x15E8F, size: 0x8, addend: 0x0, symName: __ZNKSt3__122__compressed_pair_elemIPNS_12basic_stringIcNS_11char_traitsIcEENS_9allocatorIcEEEELi0ELb0EE5__getB7v160006Ev, symObjAddr: 0x2C4C, symBinAddr: 0x1000055F4, symSize: 0x14 }
  - { offsetInCU: 0x15EB5, offset: 0x15EB5, size: 0x8, addend: 0x0, symName: __ZNSt3__14pairIKi4UserED2Ev, symObjAddr: 0x2C60, symBinAddr: 0x100005608, symSize: 0x30 }
  - { offsetInCU: 0x15EE1, offset: 0x15EE1, size: 0x8, addend: 0x0, symName: __ZNSt3__14pairIi4UserED2Ev, symObjAddr: 0x2C90, symBinAddr: 0x100005638, symSize: 0x30 }
  - { offsetInCU: 0x15F0D, offset: 0x15F0D, size: 0x8, addend: 0x0, symName: __ZN4UserD2Ev, symObjAddr: 0x2CC0, symBinAddr: 0x100005668, symSize: 0x100 }
  - { offsetInCU: 0x15F39, offset: 0x15F39, size: 0x8, addend: 0x0, symName: __ZNSt3__13mapIiNS_12basic_stringIcNS_11char_traitsIcEENS_9allocatorIcEEEENS_4lessIiEENS4_INS_4pairIKiS6_EEEEEC2B7v160006Ev, symObjAddr: 0x2DC0, symBinAddr: 0x100005768, symSize: 0x40 }
  - { offsetInCU: 0x15F63, offset: 0x15F63, size: 0x8, addend: 0x0, symName: __ZNSt3__119__map_value_compareIiNS_12__value_typeIiNS_12basic_stringIcNS_11char_traitsIcEENS_9allocatorIcEEEEEENS_4lessIiEELb1EEC1B7v160006ESA_, symObjAddr: 0x2E00, symBinAddr: 0x1000057A8, symSize: 0x2C }
  - { offsetInCU: 0x15F9C, offset: 0x15F9C, size: 0x8, addend: 0x0, symName: __ZNSt3__16__treeINS_12__value_typeIiNS_12basic_stringIcNS_11char_traitsIcEENS_9allocatorIcEEEEEENS_19__map_value_compareIiS8_NS_4lessIiEELb1EEENS5_IS8_EEEC1ERKSC_, symObjAddr: 0x2E2C, symBinAddr: 0x1000057D4, symSize: 0x34 }
  - { offsetInCU: 0x15FD7, offset: 0x15FD7, size: 0x8, addend: 0x0, symName: __ZNSt3__119__map_value_compareIiNS_12__value_typeIiNS_12basic_stringIcNS_11char_traitsIcEENS_9allocatorIcEEEEEENS_4lessIiEELb1EEC2B7v160006ESA_, symObjAddr: 0x2E60, symBinAddr: 0x100005808, symSize: 0x14 }
  - { offsetInCU: 0x16010, offset: 0x16010, size: 0x8, addend: 0x0, symName: __ZNSt3__16__treeINS_12__value_typeIiNS_12basic_stringIcNS_11char_traitsIcEENS_9allocatorIcEEEEEENS_19__map_value_compareIiS8_NS_4lessIiEELb1EEENS5_IS8_EEEC2ERKSC_, symObjAddr: 0x2E74, symBinAddr: 0x10000581C, symSize: 0x70 }
  - { offsetInCU: 0x1604B, offset: 0x1604B, size: 0x8, addend: 0x0, symName: __ZNSt3__117__compressed_pairINS_15__tree_end_nodeIPNS_16__tree_node_baseIPvEEEENS_9allocatorINS_11__tree_nodeINS_12__value_typeIiNS_12basic_stringIcNS_11char_traitsIcEENS7_IcEEEEEES3_EEEEEC1B7v160006ILb1EvEEv, symObjAddr: 0x2EE4, symBinAddr: 0x10000588C, symSize: 0x2C }
  - { offsetInCU: 0x16085, offset: 0x16085, size: 0x8, addend: 0x0, symName: __ZNSt3__117__compressed_pairImNS_19__map_value_compareIiNS_12__value_typeIiNS_12basic_stringIcNS_11char_traitsIcEENS_9allocatorIcEEEEEENS_4lessIiEELb1EEEEC1B7v160006IiRKSC_EEOT_OT0_, symObjAddr: 0x2F10, symBinAddr: 0x1000058B8, symSize: 0x3C }
  - { offsetInCU: 0x160DD, offset: 0x160DD, size: 0x8, addend: 0x0, symName: __ZNSt3__16__treeINS_12__value_typeIiNS_12basic_stringIcNS_11char_traitsIcEENS_9allocatorIcEEEEEENS_19__map_value_compareIiS8_NS_4lessIiEELb1EEENS5_IS8_EEE10__end_nodeB7v160006Ev, symObjAddr: 0x2F4C, symBinAddr: 0x1000058F4, symSize: 0x2C }
  - { offsetInCU: 0x16103, offset: 0x16103, size: 0x8, addend: 0x0, symName: __ZNSt3__16__treeINS_12__value_typeIiNS_12basic_stringIcNS_11char_traitsIcEENS_9allocatorIcEEEEEENS_19__map_value_compareIiS8_NS_4lessIiEELb1EEENS5_IS8_EEE12__begin_nodeB7v160006Ev, symObjAddr: 0x2F78, symBinAddr: 0x100005920, symSize: 0x14 }
  - { offsetInCU: 0x16129, offset: 0x16129, size: 0x8, addend: 0x0, symName: __ZNSt3__117__compressed_pairINS_15__tree_end_nodeIPNS_16__tree_node_baseIPvEEEENS_9allocatorINS_11__tree_nodeINS_12__value_typeIiNS_12basic_stringIcNS_11char_traitsIcEENS7_IcEEEEEES3_EEEEEC2B7v160006ILb1EvEEv, symObjAddr: 0x2F8C, symBinAddr: 0x100005934, symSize: 0x34 }
  - { offsetInCU: 0x1615E, offset: 0x1615E, size: 0x8, addend: 0x0, symName: __ZNSt3__122__compressed_pair_elemINS_15__tree_end_nodeIPNS_16__tree_node_baseIPvEEEELi0ELb0EEC2B7v160006ENS_16__value_init_tagE, symObjAddr: 0x2FC0, symBinAddr: 0x100005968, symSize: 0x2C }
  - { offsetInCU: 0x16193, offset: 0x16193, size: 0x8, addend: 0x0, symName: __ZNSt3__122__compressed_pair_elemINS_9allocatorINS_11__tree_nodeINS_12__value_typeIiNS_12basic_stringIcNS_11char_traitsIcEENS1_IcEEEEEEPvEEEELi1ELb1EEC2B7v160006ENS_16__value_init_tagE, symObjAddr: 0x2FEC, symBinAddr: 0x100005994, symSize: 0x2C }
  - { offsetInCU: 0x161C8, offset: 0x161C8, size: 0x8, addend: 0x0, symName: __ZNSt3__115__tree_end_nodeIPNS_16__tree_node_baseIPvEEEC1B7v160006Ev, symObjAddr: 0x3018, symBinAddr: 0x1000059C0, symSize: 0x2C }
  - { offsetInCU: 0x161F2, offset: 0x161F2, size: 0x8, addend: 0x0, symName: __ZNSt3__115__tree_end_nodeIPNS_16__tree_node_baseIPvEEEC2B7v160006Ev, symObjAddr: 0x3044, symBinAddr: 0x1000059EC, symSize: 0x18 }
  - { offsetInCU: 0x1621C, offset: 0x1621C, size: 0x8, addend: 0x0, symName: __ZNSt3__19allocatorINS_11__tree_nodeINS_12__value_typeIiNS_12basic_stringIcNS_11char_traitsIcEENS0_IcEEEEEEPvEEEC2B7v160006Ev, symObjAddr: 0x305C, symBinAddr: 0x100005A04, symSize: 0x2C }
  - { offsetInCU: 0x16246, offset: 0x16246, size: 0x8, addend: 0x0, symName: __ZNSt3__116__non_trivial_ifILb1ENS_9allocatorINS_11__tree_nodeINS_12__value_typeIiNS_12basic_stringIcNS_11char_traitsIcEENS1_IcEEEEEEPvEEEEEC2B7v160006Ev, symObjAddr: 0x3088, symBinAddr: 0x100005A30, symSize: 0x14 }
  - { offsetInCU: 0x16270, offset: 0x16270, size: 0x8, addend: 0x0, symName: __ZNSt3__117__compressed_pairImNS_19__map_value_compareIiNS_12__value_typeIiNS_12basic_stringIcNS_11char_traitsIcEENS_9allocatorIcEEEEEENS_4lessIiEELb1EEEEC2B7v160006IiRKSC_EEOT_OT0_, symObjAddr: 0x309C, symBinAddr: 0x100005A44, symSize: 0x44 }
  - { offsetInCU: 0x162C8, offset: 0x162C8, size: 0x8, addend: 0x0, symName: __ZNSt3__122__compressed_pair_elemImLi0ELb0EEC2B7v160006IivEEOT_, symObjAddr: 0x30E0, symBinAddr: 0x100005A88, symSize: 0x24 }
  - { offsetInCU: 0x1630A, offset: 0x1630A, size: 0x8, addend: 0x0, symName: __ZNSt3__122__compressed_pair_elemINS_19__map_value_compareIiNS_12__value_typeIiNS_12basic_stringIcNS_11char_traitsIcEENS_9allocatorIcEEEEEENS_4lessIiEELb1EEELi1ELb1EEC2B7v160006IRKSC_vEEOT_, symObjAddr: 0x3104, symBinAddr: 0x100005AAC, symSize: 0x18 }
  - { offsetInCU: 0x1634C, offset: 0x1634C, size: 0x8, addend: 0x0, symName: __ZNSt3__114pointer_traitsIPNS_15__tree_end_nodeIPNS_16__tree_node_baseIPvEEEEE10pointer_toB7v160006ERS6_, symObjAddr: 0x311C, symBinAddr: 0x100005AC4, symSize: 0x14 }
  - { offsetInCU: 0x1636F, offset: 0x1636F, size: 0x8, addend: 0x0, symName: __ZNSt3__117__compressed_pairINS_15__tree_end_nodeIPNS_16__tree_node_baseIPvEEEENS_9allocatorINS_11__tree_nodeINS_12__value_typeIiNS_12basic_stringIcNS_11char_traitsIcEENS7_IcEEEEEES3_EEEEE5firstB7v160006Ev, symObjAddr: 0x3130, symBinAddr: 0x100005AD8, symSize: 0x24 }
  - { offsetInCU: 0x16395, offset: 0x16395, size: 0x8, addend: 0x0, symName: __ZNSt3__122__compressed_pair_elemINS_15__tree_end_nodeIPNS_16__tree_node_baseIPvEEEELi0ELb0EE5__getB7v160006Ev, symObjAddr: 0x3154, symBinAddr: 0x100005AFC, symSize: 0x14 }
  - { offsetInCU: 0x163BB, offset: 0x163BB, size: 0x8, addend: 0x0, symName: __ZNSt3__112basic_stringIcNS_11char_traitsIcEENS_9allocatorIcEEEC2B7v160006Ev, symObjAddr: 0x3168, symBinAddr: 0x100005B10, symSize: 0x44 }
  - { offsetInCU: 0x163E5, offset: 0x163E5, size: 0x8, addend: 0x0, symName: __ZNSt3__117__compressed_pairINS_12basic_stringIcNS_11char_traitsIcEENS_9allocatorIcEEE5__repES5_EC1B7v160006INS_18__default_init_tagESA_EEOT_OT0_, symObjAddr: 0x31AC, symBinAddr: 0x100005B54, symSize: 0x3C }
  - { offsetInCU: 0x1643D, offset: 0x1643D, size: 0x8, addend: 0x0, symName: __ZNSt3__112basic_stringIcNS_11char_traitsIcEENS_9allocatorIcEEE14__default_initB7v160006Ev, symObjAddr: 0x31F8, symBinAddr: 0x100005BA0, symSize: 0xB0 }
  - { offsetInCU: 0x1648F, offset: 0x1648F, size: 0x8, addend: 0x0, symName: __ZNSt3__117__compressed_pairINS_12basic_stringIcNS_11char_traitsIcEENS_9allocatorIcEEE5__repES5_EC2B7v160006INS_18__default_init_tagESA_EEOT_OT0_, symObjAddr: 0x32A8, symBinAddr: 0x100005C50, symSize: 0x3C }
  - { offsetInCU: 0x164E7, offset: 0x164E7, size: 0x8, addend: 0x0, symName: __ZNSt3__122__compressed_pair_elemINS_12basic_stringIcNS_11char_traitsIcEENS_9allocatorIcEEE5__repELi0ELb0EEC2B7v160006ENS_18__default_init_tagE, symObjAddr: 0x32E4, symBinAddr: 0x100005C8C, symSize: 0x14 }
  - { offsetInCU: 0x1651C, offset: 0x1651C, size: 0x8, addend: 0x0, symName: __ZNSt3__122__compressed_pair_elemINS_9allocatorIcEELi1ELb1EEC2B7v160006ENS_18__default_init_tagE, symObjAddr: 0x32F8, symBinAddr: 0x100005CA0, symSize: 0x2C }
  - { offsetInCU: 0x16551, offset: 0x16551, size: 0x8, addend: 0x0, symName: __ZNSt3__19allocatorIcEC2B7v160006Ev, symObjAddr: 0x3324, symBinAddr: 0x100005CCC, symSize: 0x2C }
  - { offsetInCU: 0x1657B, offset: 0x1657B, size: 0x8, addend: 0x0, symName: __ZNSt3__116__non_trivial_ifILb1ENS_9allocatorIcEEEC2B7v160006Ev, symObjAddr: 0x3350, symBinAddr: 0x100005CF8, symSize: 0x14 }
  - { offsetInCU: 0x165A5, offset: 0x165A5, size: 0x8, addend: 0x0, symName: __ZNSt3__117__compressed_pairINS_12basic_stringIcNS_11char_traitsIcEENS_9allocatorIcEEE5__repES5_E5firstB7v160006Ev, symObjAddr: 0x3364, symBinAddr: 0x100005D0C, symSize: 0x24 }
  - { offsetInCU: 0x165CB, offset: 0x165CB, size: 0x8, addend: 0x0, symName: __ZNSt3__112basic_stringIcNS_11char_traitsIcEENS_9allocatorIcEEE11__recommendB7v160006Em, symObjAddr: 0x3388, symBinAddr: 0x100005D30, symSize: 0x9C }
  - { offsetInCU: 0x165FE, offset: 0x165FE, size: 0x8, addend: 0x0, symName: __ZNSt3__116allocator_traitsINS_9allocatorIcEEE8allocateB7v160006ERS2_m, symObjAddr: 0x3424, symBinAddr: 0x100005DCC, symSize: 0x2C }
  - { offsetInCU: 0x16631, offset: 0x16631, size: 0x8, addend: 0x0, symName: __ZNSt3__112basic_stringIcNS_11char_traitsIcEENS_9allocatorIcEEE7__allocB7v160006Ev, symObjAddr: 0x3450, symBinAddr: 0x100005DF8, symSize: 0x24 }
  - { offsetInCU: 0x16657, offset: 0x16657, size: 0x8, addend: 0x0, symName: __ZNSt3__112basic_stringIcNS_11char_traitsIcEENS_9allocatorIcEEE16__begin_lifetimeB7v160006EPcm, symObjAddr: 0x3474, symBinAddr: 0x100005E1C, symSize: 0x14 }
  - { offsetInCU: 0x1668A, offset: 0x1668A, size: 0x8, addend: 0x0, symName: __ZNSt3__112basic_stringIcNS_11char_traitsIcEENS_9allocatorIcEEE18__set_long_pointerB7v160006EPc, symObjAddr: 0x3488, symBinAddr: 0x100005E30, symSize: 0x38 }
  - { offsetInCU: 0x166BF, offset: 0x166BF, size: 0x8, addend: 0x0, symName: __ZNSt3__112basic_stringIcNS_11char_traitsIcEENS_9allocatorIcEEE14__set_long_capB7v160006Em, symObjAddr: 0x34C0, symBinAddr: 0x100005E68, symSize: 0x70 }
  - { offsetInCU: 0x166F4, offset: 0x166F4, size: 0x8, addend: 0x0, symName: __ZNSt3__112basic_stringIcNS_11char_traitsIcEENS_9allocatorIcEEE15__set_long_sizeB7v160006Em, symObjAddr: 0x3530, symBinAddr: 0x100005ED8, symSize: 0x38 }
  - { offsetInCU: 0x16729, offset: 0x16729, size: 0x8, addend: 0x0, symName: __ZNSt3__122__compressed_pair_elemINS_12basic_stringIcNS_11char_traitsIcEENS_9allocatorIcEEE5__repELi0ELb0EE5__getB7v160006Ev, symObjAddr: 0x3568, symBinAddr: 0x100005F10, symSize: 0x14 }
  - { offsetInCU: 0x1674F, offset: 0x1674F, size: 0x8, addend: 0x0, symName: __ZNSt3__112basic_stringIcNS_11char_traitsIcEENS_9allocatorIcEEE10__align_itB7v160006ILm16EEEmm, symObjAddr: 0x357C, symBinAddr: 0x100005F24, symSize: 0x1C }
  - { offsetInCU: 0x1677D, offset: 0x1677D, size: 0x8, addend: 0x0, symName: __ZNSt3__19allocatorIcE8allocateB7v160006Em, symObjAddr: 0x3598, symBinAddr: 0x100005F40, symSize: 0x84 }
  - { offsetInCU: 0x167BB, offset: 0x167BB, size: 0x8, addend: 0x0, symName: __ZNSt3__116allocator_traitsINS_9allocatorIcEEE8max_sizeB7v160006IS2_vEEmRKS2_, symObjAddr: 0x361C, symBinAddr: 0x100005FC4, symSize: 0x24 }
  - { offsetInCU: 0x167E9, offset: 0x167E9, size: 0x8, addend: 0x0, symName: __ZNKSt3__19allocatorIcE8max_sizeB7v160006Ev, symObjAddr: 0x369C, symBinAddr: 0x100006044, symSize: 0x14 }
  - { offsetInCU: 0x1680F, offset: 0x1680F, size: 0x8, addend: 0x0, symName: __ZNSt3__117__compressed_pairINS_12basic_stringIcNS_11char_traitsIcEENS_9allocatorIcEEE5__repES5_E6secondB7v160006Ev, symObjAddr: 0x36D4, symBinAddr: 0x10000607C, symSize: 0x24 }
  - { offsetInCU: 0x16835, offset: 0x16835, size: 0x8, addend: 0x0, symName: __ZNSt3__122__compressed_pair_elemINS_9allocatorIcEELi1ELb1EE5__getB7v160006Ev, symObjAddr: 0x36F8, symBinAddr: 0x1000060A0, symSize: 0x14 }
  - { offsetInCU: 0x1685B, offset: 0x1685B, size: 0x8, addend: 0x0, symName: __ZNSt3__13mapIi4UserNS_4lessIiEENS_9allocatorINS_4pairIKiS1_EEEEEC2B7v160006Ev, symObjAddr: 0x370C, symBinAddr: 0x1000060B4, symSize: 0x40 }
  - { offsetInCU: 0x16885, offset: 0x16885, size: 0x8, addend: 0x0, symName: __ZNSt3__119__map_value_compareIiNS_12__value_typeIi4UserEENS_4lessIiEELb1EEC1B7v160006ES5_, symObjAddr: 0x374C, symBinAddr: 0x1000060F4, symSize: 0x2C }
  - { offsetInCU: 0x168BE, offset: 0x168BE, size: 0x8, addend: 0x0, symName: __ZNSt3__16__treeINS_12__value_typeIi4UserEENS_19__map_value_compareIiS3_NS_4lessIiEELb1EEENS_9allocatorIS3_EEEC1ERKS7_, symObjAddr: 0x3778, symBinAddr: 0x100006120, symSize: 0x34 }
  - { offsetInCU: 0x168F9, offset: 0x168F9, size: 0x8, addend: 0x0, symName: __ZNSt3__119__map_value_compareIiNS_12__value_typeIi4UserEENS_4lessIiEELb1EEC2B7v160006ES5_, symObjAddr: 0x37AC, symBinAddr: 0x100006154, symSize: 0x14 }
  - { offsetInCU: 0x16932, offset: 0x16932, size: 0x8, addend: 0x0, symName: __ZNSt3__16__treeINS_12__value_typeIi4UserEENS_19__map_value_compareIiS3_NS_4lessIiEELb1EEENS_9allocatorIS3_EEEC2ERKS7_, symObjAddr: 0x37C0, symBinAddr: 0x100006168, symSize: 0x70 }
  - { offsetInCU: 0x1696D, offset: 0x1696D, size: 0x8, addend: 0x0, symName: __ZNSt3__117__compressed_pairINS_15__tree_end_nodeIPNS_16__tree_node_baseIPvEEEENS_9allocatorINS_11__tree_nodeINS_12__value_typeIi4UserEES3_EEEEEC1B7v160006ILb1EvEEv, symObjAddr: 0x3830, symBinAddr: 0x1000061D8, symSize: 0x2C }
  - { offsetInCU: 0x169A2, offset: 0x169A2, size: 0x8, addend: 0x0, symName: __ZNSt3__117__compressed_pairImNS_19__map_value_compareIiNS_12__value_typeIi4UserEENS_4lessIiEELb1EEEEC1B7v160006IiRKS7_EEOT_OT0_, symObjAddr: 0x385C, symBinAddr: 0x100006204, symSize: 0x3C }
  - { offsetInCU: 0x169FA, offset: 0x169FA, size: 0x8, addend: 0x0, symName: __ZNSt3__16__treeINS_12__value_typeIi4UserEENS_19__map_value_compareIiS3_NS_4lessIiEELb1EEENS_9allocatorIS3_EEE10__end_nodeB7v160006Ev, symObjAddr: 0x3898, symBinAddr: 0x100006240, symSize: 0x2C }
  - { offsetInCU: 0x16A20, offset: 0x16A20, size: 0x8, addend: 0x0, symName: __ZNSt3__16__treeINS_12__value_typeIi4UserEENS_19__map_value_compareIiS3_NS_4lessIiEELb1EEENS_9allocatorIS3_EEE12__begin_nodeB7v160006Ev, symObjAddr: 0x38C4, symBinAddr: 0x10000626C, symSize: 0x14 }
  - { offsetInCU: 0x16A46, offset: 0x16A46, size: 0x8, addend: 0x0, symName: __ZNSt3__117__compressed_pairINS_15__tree_end_nodeIPNS_16__tree_node_baseIPvEEEENS_9allocatorINS_11__tree_nodeINS_12__value_typeIi4UserEES3_EEEEEC2B7v160006ILb1EvEEv, symObjAddr: 0x38D8, symBinAddr: 0x100006280, symSize: 0x34 }
  - { offsetInCU: 0x16A7B, offset: 0x16A7B, size: 0x8, addend: 0x0, symName: __ZNSt3__122__compressed_pair_elemINS_9allocatorINS_11__tree_nodeINS_12__value_typeIi4UserEEPvEEEELi1ELb1EEC2B7v160006ENS_16__value_init_tagE, symObjAddr: 0x390C, symBinAddr: 0x1000062B4, symSize: 0x2C }
  - { offsetInCU: 0x16AB0, offset: 0x16AB0, size: 0x8, addend: 0x0, symName: __ZNSt3__19allocatorINS_11__tree_nodeINS_12__value_typeIi4UserEEPvEEEC2B7v160006Ev, symObjAddr: 0x3938, symBinAddr: 0x1000062E0, symSize: 0x2C }
  - { offsetInCU: 0x16ADA, offset: 0x16ADA, size: 0x8, addend: 0x0, symName: __ZNSt3__116__non_trivial_ifILb1ENS_9allocatorINS_11__tree_nodeINS_12__value_typeIi4UserEEPvEEEEEC2B7v160006Ev, symObjAddr: 0x3964, symBinAddr: 0x10000630C, symSize: 0x14 }
  - { offsetInCU: 0x16B04, offset: 0x16B04, size: 0x8, addend: 0x0, symName: __ZNSt3__117__compressed_pairImNS_19__map_value_compareIiNS_12__value_typeIi4UserEENS_4lessIiEELb1EEEEC2B7v160006IiRKS7_EEOT_OT0_, symObjAddr: 0x3978, symBinAddr: 0x100006320, symSize: 0x44 }
  - { offsetInCU: 0x16B5C, offset: 0x16B5C, size: 0x8, addend: 0x0, symName: __ZNSt3__122__compressed_pair_elemINS_19__map_value_compareIiNS_12__value_typeIi4UserEENS_4lessIiEELb1EEELi1ELb1EEC2B7v160006IRKS7_vEEOT_, symObjAddr: 0x39BC, symBinAddr: 0x100006364, symSize: 0x18 }
  - { offsetInCU: 0x16B9E, offset: 0x16B9E, size: 0x8, addend: 0x0, symName: __ZNSt3__117__compressed_pairINS_15__tree_end_nodeIPNS_16__tree_node_baseIPvEEEENS_9allocatorINS_11__tree_nodeINS_12__value_typeIi4UserEES3_EEEEE5firstB7v160006Ev, symObjAddr: 0x39D4, symBinAddr: 0x10000637C, symSize: 0x24 }
  - { offsetInCU: 0x16BC4, offset: 0x16BC4, size: 0x8, addend: 0x0, symName: __ZNSt3__16vectorI7ChannelNS_9allocatorIS1_EEEC2B7v160006Ev, symObjAddr: 0x39F8, symBinAddr: 0x1000063A0, symSize: 0x4C }
  - { offsetInCU: 0x16BEE, offset: 0x16BEE, size: 0x8, addend: 0x0, symName: __ZNSt3__117__compressed_pairIP7ChannelNS_9allocatorIS1_EEEC1B7v160006IDnNS_18__default_init_tagEEEOT_OT0_, symObjAddr: 0x3A44, symBinAddr: 0x1000063EC, symSize: 0x3C }
  - { offsetInCU: 0x16C46, offset: 0x16C46, size: 0x8, addend: 0x0, symName: __ZNSt3__117__compressed_pairIP7ChannelNS_9allocatorIS1_EEEC2B7v160006IDnNS_18__default_init_tagEEEOT_OT0_, symObjAddr: 0x3A90, symBinAddr: 0x100006438, symSize: 0x40 }
  - { offsetInCU: 0x16C9E, offset: 0x16C9E, size: 0x8, addend: 0x0, symName: __ZNSt3__122__compressed_pair_elemIP7ChannelLi0ELb0EEC2B7v160006IDnvEEOT_, symObjAddr: 0x3AD0, symBinAddr: 0x100006478, symSize: 0x1C }
  - { offsetInCU: 0x16CE0, offset: 0x16CE0, size: 0x8, addend: 0x0, symName: __ZNSt3__122__compressed_pair_elemINS_9allocatorI7ChannelEELi1ELb1EEC2B7v160006ENS_18__default_init_tagE, symObjAddr: 0x3AEC, symBinAddr: 0x100006494, symSize: 0x2C }
  - { offsetInCU: 0x16D15, offset: 0x16D15, size: 0x8, addend: 0x0, symName: __ZNSt3__19allocatorI7ChannelEC2B7v160006Ev, symObjAddr: 0x3B18, symBinAddr: 0x1000064C0, symSize: 0x2C }
  - { offsetInCU: 0x16D3F, offset: 0x16D3F, size: 0x8, addend: 0x0, symName: __ZNSt3__116__non_trivial_ifILb1ENS_9allocatorI7ChannelEEEC2B7v160006Ev, symObjAddr: 0x3B44, symBinAddr: 0x1000064EC, symSize: 0x14 }
  - { offsetInCU: 0x16D69, offset: 0x16D69, size: 0x8, addend: 0x0, symName: __ZNSt3__13mapIiNS_12basic_stringIcNS_11char_traitsIcEENS_9allocatorIcEEEENS_4lessIiEENS4_INS_4pairIKiS6_EEEEED2B7v160006Ev, symObjAddr: 0x3B58, symBinAddr: 0x100006500, symSize: 0x2C }
  - { offsetInCU: 0x16D93, offset: 0x16D93, size: 0x8, addend: 0x0, symName: __ZNSt3__16__treeINS_12__value_typeIiNS_12basic_stringIcNS_11char_traitsIcEENS_9allocatorIcEEEEEENS_19__map_value_compareIiS8_NS_4lessIiEELb1EEENS5_IS8_EEED1Ev, symObjAddr: 0x3B84, symBinAddr: 0x10000652C, symSize: 0x2C }
  - { offsetInCU: 0x16DBF, offset: 0x16DBF, size: 0x8, addend: 0x0, symName: __ZNSt3__16__treeINS_12__value_typeIiNS_12basic_stringIcNS_11char_traitsIcEENS_9allocatorIcEEEEEENS_19__map_value_compareIiS8_NS_4lessIiEELb1EEENS5_IS8_EEED2Ev, symObjAddr: 0x3BB0, symBinAddr: 0x100006558, symSize: 0x38 }
  - { offsetInCU: 0x16DEB, offset: 0x16DEB, size: 0x8, addend: 0x0, symName: __ZNSt3__16__treeINS_12__value_typeIiNS_12basic_stringIcNS_11char_traitsIcEENS_9allocatorIcEEEEEENS_19__map_value_compareIiS8_NS_4lessIiEELb1EEENS5_IS8_EEE7destroyEPNS_11__tree_nodeIS8_PvEE, symObjAddr: 0x3BE8, symBinAddr: 0x100006590, symSize: 0xC0 }
  - { offsetInCU: 0x16E3F, offset: 0x16E3F, size: 0x8, addend: 0x0, symName: __ZNKSt3__16__treeINS_12__value_typeIiNS_12basic_stringIcNS_11char_traitsIcEENS_9allocatorIcEEEEEENS_19__map_value_compareIiS8_NS_4lessIiEELb1EEENS5_IS8_EEE6__rootB7v160006Ev, symObjAddr: 0x3CA8, symBinAddr: 0x100006650, symSize: 0x28 }
  - { offsetInCU: 0x16E65, offset: 0x16E65, size: 0x8, addend: 0x0, symName: __ZNSt3__16__treeINS_12__value_typeIiNS_12basic_stringIcNS_11char_traitsIcEENS_9allocatorIcEEEEEENS_19__map_value_compareIiS8_NS_4lessIiEELb1EEENS5_IS8_EEE12__node_allocB7v160006Ev, symObjAddr: 0x3CD0, symBinAddr: 0x100006678, symSize: 0x28 }
  - { offsetInCU: 0x16E90, offset: 0x16E90, size: 0x8, addend: 0x0, symName: __ZNSt3__116allocator_traitsINS_9allocatorINS_11__tree_nodeINS_12__value_typeIiNS_12basic_stringIcNS_11char_traitsIcEENS1_IcEEEEEEPvEEEEE7destroyB7v160006INS_4pairIKiS8_EEvvEEvRSC_PT_, symObjAddr: 0x3CF8, symBinAddr: 0x1000066A0, symSize: 0x28 }
  - { offsetInCU: 0x16ECA, offset: 0x16ECA, size: 0x8, addend: 0x0, symName: __ZNSt3__122__tree_key_value_typesINS_12__value_typeIiNS_12basic_stringIcNS_11char_traitsIcEENS_9allocatorIcEEEEEEE9__get_ptrB7v160006ERS8_, symObjAddr: 0x3D20, symBinAddr: 0x1000066C8, symSize: 0x24 }
  - { offsetInCU: 0x16EEE, offset: 0x16EEE, size: 0x8, addend: 0x0, symName: __ZNSt3__116allocator_traitsINS_9allocatorINS_11__tree_nodeINS_12__value_typeIiNS_12basic_stringIcNS_11char_traitsIcEENS1_IcEEEEEEPvEEEEE10deallocateB7v160006ERSC_PSB_m, symObjAddr: 0x3D44, symBinAddr: 0x1000066EC, symSize: 0x34 }
  - { offsetInCU: 0x16F30, offset: 0x16F30, size: 0x8, addend: 0x0, symName: __ZNSt3__117__compressed_pairINS_15__tree_end_nodeIPNS_16__tree_node_baseIPvEEEENS_9allocatorINS_11__tree_nodeINS_12__value_typeIiNS_12basic_stringIcNS_11char_traitsIcEENS7_IcEEEEEES3_EEEEE6secondB7v160006Ev, symObjAddr: 0x3D78, symBinAddr: 0x100006720, symSize: 0x24 }
  - { offsetInCU: 0x16F56, offset: 0x16F56, size: 0x8, addend: 0x0, symName: __ZNSt3__122__compressed_pair_elemINS_9allocatorINS_11__tree_nodeINS_12__value_typeIiNS_12basic_stringIcNS_11char_traitsIcEENS1_IcEEEEEEPvEEEELi1ELb1EE5__getB7v160006Ev, symObjAddr: 0x3D9C, symBinAddr: 0x100006744, symSize: 0x14 }
  - { offsetInCU: 0x16F7C, offset: 0x16F7C, size: 0x8, addend: 0x0, symName: __ZNSt3__14pairIKiNS_12basic_stringIcNS_11char_traitsIcEENS_9allocatorIcEEEEED1Ev, symObjAddr: 0x3DB0, symBinAddr: 0x100006758, symSize: 0x2C }
  - { offsetInCU: 0x16FA8, offset: 0x16FA8, size: 0x8, addend: 0x0, symName: __ZNSt3__14pairIKiNS_12basic_stringIcNS_11char_traitsIcEENS_9allocatorIcEEEEED2Ev, symObjAddr: 0x3DDC, symBinAddr: 0x100006784, symSize: 0x30 }
  - { offsetInCU: 0x16FD4, offset: 0x16FD4, size: 0x8, addend: 0x0, symName: __ZNSt3__112__value_typeIiNS_12basic_stringIcNS_11char_traitsIcEENS_9allocatorIcEEEEE11__get_valueB7v160006Ev, symObjAddr: 0x3E0C, symBinAddr: 0x1000067B4, symSize: 0x14 }
  - { offsetInCU: 0x16FFA, offset: 0x16FFA, size: 0x8, addend: 0x0, symName: __ZNSt3__19allocatorINS_11__tree_nodeINS_12__value_typeIiNS_12basic_stringIcNS_11char_traitsIcEENS0_IcEEEEEEPvEEE10deallocateB7v160006EPSA_m, symObjAddr: 0x3E20, symBinAddr: 0x1000067C8, symSize: 0x70 }
  - { offsetInCU: 0x1703C, offset: 0x1703C, size: 0x8, addend: 0x0, symName: __ZNKSt3__16__treeINS_12__value_typeIiNS_12basic_stringIcNS_11char_traitsIcEENS_9allocatorIcEEEEEENS_19__map_value_compareIiS8_NS_4lessIiEELb1EEENS5_IS8_EEE10__end_nodeB7v160006Ev, symObjAddr: 0x3E90, symBinAddr: 0x100006838, symSize: 0x2C }
  - { offsetInCU: 0x17062, offset: 0x17062, size: 0x8, addend: 0x0, symName: __ZNKSt3__117__compressed_pairINS_15__tree_end_nodeIPNS_16__tree_node_baseIPvEEEENS_9allocatorINS_11__tree_nodeINS_12__value_typeIiNS_12basic_stringIcNS_11char_traitsIcEENS7_IcEEEEEES3_EEEEE5firstB7v160006Ev, symObjAddr: 0x3EBC, symBinAddr: 0x100006864, symSize: 0x24 }
  - { offsetInCU: 0x17088, offset: 0x17088, size: 0x8, addend: 0x0, symName: __ZNKSt3__122__compressed_pair_elemINS_15__tree_end_nodeIPNS_16__tree_node_baseIPvEEEELi0ELb0EE5__getB7v160006Ev, symObjAddr: 0x3EE0, symBinAddr: 0x100006888, symSize: 0x14 }
  - { offsetInCU: 0x170AE, offset: 0x170AE, size: 0x8, addend: 0x0, symName: __ZNSt3__13mapIi4UserNS_4lessIiEENS_9allocatorINS_4pairIKiS1_EEEEED2B7v160006Ev, symObjAddr: 0x3EF4, symBinAddr: 0x10000689C, symSize: 0x2C }
  - { offsetInCU: 0x170D8, offset: 0x170D8, size: 0x8, addend: 0x0, symName: __ZNSt3__16__treeINS_12__value_typeIi4UserEENS_19__map_value_compareIiS3_NS_4lessIiEELb1EEENS_9allocatorIS3_EEED1Ev, symObjAddr: 0x3F20, symBinAddr: 0x1000068C8, symSize: 0x2C }
  - { offsetInCU: 0x17104, offset: 0x17104, size: 0x8, addend: 0x0, symName: __ZNSt3__16__treeINS_12__value_typeIi4UserEENS_19__map_value_compareIiS3_NS_4lessIiEELb1EEENS_9allocatorIS3_EEED2Ev, symObjAddr: 0x3F4C, symBinAddr: 0x1000068F4, symSize: 0x38 }
  - { offsetInCU: 0x17130, offset: 0x17130, size: 0x8, addend: 0x0, symName: __ZNSt3__16__treeINS_12__value_typeIi4UserEENS_19__map_value_compareIiS3_NS_4lessIiEELb1EEENS_9allocatorIS3_EEE7destroyEPNS_11__tree_nodeIS3_PvEE, symObjAddr: 0x3F84, symBinAddr: 0x10000692C, symSize: 0xC0 }
  - { offsetInCU: 0x17184, offset: 0x17184, size: 0x8, addend: 0x0, symName: __ZNKSt3__16__treeINS_12__value_typeIi4UserEENS_19__map_value_compareIiS3_NS_4lessIiEELb1EEENS_9allocatorIS3_EEE6__rootB7v160006Ev, symObjAddr: 0x4044, symBinAddr: 0x1000069EC, symSize: 0x28 }
  - { offsetInCU: 0x171AA, offset: 0x171AA, size: 0x8, addend: 0x0, symName: __ZNSt3__16__treeINS_12__value_typeIi4UserEENS_19__map_value_compareIiS3_NS_4lessIiEELb1EEENS_9allocatorIS3_EEE12__node_allocB7v160006Ev, symObjAddr: 0x406C, symBinAddr: 0x100006A14, symSize: 0x28 }
  - { offsetInCU: 0x171D0, offset: 0x171D0, size: 0x8, addend: 0x0, symName: __ZNSt3__116allocator_traitsINS_9allocatorINS_11__tree_nodeINS_12__value_typeIi4UserEEPvEEEEE7destroyB7v160006INS_4pairIKiS4_EEvvEEvRS8_PT_, symObjAddr: 0x4094, symBinAddr: 0x100006A3C, symSize: 0x28 }
  - { offsetInCU: 0x1720A, offset: 0x1720A, size: 0x8, addend: 0x0, symName: __ZNSt3__122__tree_key_value_typesINS_12__value_typeIi4UserEEE9__get_ptrB7v160006ERS3_, symObjAddr: 0x40BC, symBinAddr: 0x100006A64, symSize: 0x24 }
  - { offsetInCU: 0x1722E, offset: 0x1722E, size: 0x8, addend: 0x0, symName: __ZNSt3__116allocator_traitsINS_9allocatorINS_11__tree_nodeINS_12__value_typeIi4UserEEPvEEEEE10deallocateB7v160006ERS8_PS7_m, symObjAddr: 0x40E0, symBinAddr: 0x100006A88, symSize: 0x34 }
  - { offsetInCU: 0x17270, offset: 0x17270, size: 0x8, addend: 0x0, symName: __ZNSt3__117__compressed_pairINS_15__tree_end_nodeIPNS_16__tree_node_baseIPvEEEENS_9allocatorINS_11__tree_nodeINS_12__value_typeIi4UserEES3_EEEEE6secondB7v160006Ev, symObjAddr: 0x4114, symBinAddr: 0x100006ABC, symSize: 0x24 }
  - { offsetInCU: 0x17296, offset: 0x17296, size: 0x8, addend: 0x0, symName: __ZNSt3__122__compressed_pair_elemINS_9allocatorINS_11__tree_nodeINS_12__value_typeIi4UserEEPvEEEELi1ELb1EE5__getB7v160006Ev, symObjAddr: 0x4138, symBinAddr: 0x100006AE0, symSize: 0x14 }
  - { offsetInCU: 0x172BC, offset: 0x172BC, size: 0x8, addend: 0x0, symName: __ZNSt3__112__value_typeIi4UserE11__get_valueB7v160006Ev, symObjAddr: 0x414C, symBinAddr: 0x100006AF4, symSize: 0x14 }
  - { offsetInCU: 0x172E2, offset: 0x172E2, size: 0x8, addend: 0x0, symName: __ZNSt3__19allocatorINS_11__tree_nodeINS_12__value_typeIi4UserEEPvEEE10deallocateB7v160006EPS6_m, symObjAddr: 0x4160, symBinAddr: 0x100006B08, symSize: 0x74 }
  - { offsetInCU: 0x17324, offset: 0x17324, size: 0x8, addend: 0x0, symName: __ZNKSt3__16__treeINS_12__value_typeIi4UserEENS_19__map_value_compareIiS3_NS_4lessIiEELb1EEENS_9allocatorIS3_EEE10__end_nodeB7v160006Ev, symObjAddr: 0x41D4, symBinAddr: 0x100006B7C, symSize: 0x2C }
  - { offsetInCU: 0x1734A, offset: 0x1734A, size: 0x8, addend: 0x0, symName: __ZNKSt3__117__compressed_pairINS_15__tree_end_nodeIPNS_16__tree_node_baseIPvEEEENS_9allocatorINS_11__tree_nodeINS_12__value_typeIi4UserEES3_EEEEE5firstB7v160006Ev, symObjAddr: 0x4200, symBinAddr: 0x100006BA8, symSize: 0x24 }
  - { offsetInCU: 0x17370, offset: 0x17370, size: 0x8, addend: 0x0, symName: __ZNSt3__16vectorI7ChannelNS_9allocatorIS1_EEED2B7v160006Ev, symObjAddr: 0x4224, symBinAddr: 0x100006BCC, symSize: 0x3C }
  - { offsetInCU: 0x1739A, offset: 0x1739A, size: 0x8, addend: 0x0, symName: __ZNSt3__16vectorI7ChannelNS_9allocatorIS1_EEE16__destroy_vectorC1ERS4_, symObjAddr: 0x4260, symBinAddr: 0x100006C08, symSize: 0x34 }
  - { offsetInCU: 0x173D3, offset: 0x173D3, size: 0x8, addend: 0x0, symName: __ZNSt3__16vectorI7ChannelNS_9allocatorIS1_EEE16__destroy_vectorclB7v160006Ev, symObjAddr: 0x4294, symBinAddr: 0x100006C3C, symSize: 0x9C }
  - { offsetInCU: 0x173F9, offset: 0x173F9, size: 0x8, addend: 0x0, symName: __ZNSt3__16vectorI7ChannelNS_9allocatorIS1_EEE16__destroy_vectorC2ERS4_, symObjAddr: 0x4330, symBinAddr: 0x100006CD8, symSize: 0x20 }
  - { offsetInCU: 0x17432, offset: 0x17432, size: 0x8, addend: 0x0, symName: __ZNKSt3__16vectorI7ChannelNS_9allocatorIS1_EEE17__annotate_deleteB7v160006Ev, symObjAddr: 0x4350, symBinAddr: 0x100006CF8, symSize: 0xD4 }
  - { offsetInCU: 0x17458, offset: 0x17458, size: 0x8, addend: 0x0, symName: __ZNSt3__16vectorI7ChannelNS_9allocatorIS1_EEE7__clearB7v160006Ev, symObjAddr: 0x4434, symBinAddr: 0x100006DDC, symSize: 0x28 }
  - { offsetInCU: 0x1747E, offset: 0x1747E, size: 0x8, addend: 0x0, symName: __ZNSt3__116allocator_traitsINS_9allocatorI7ChannelEEE10deallocateB7v160006ERS3_PS2_m, symObjAddr: 0x445C, symBinAddr: 0x100006E04, symSize: 0x34 }
  - { offsetInCU: 0x174C0, offset: 0x174C0, size: 0x8, addend: 0x0, symName: __ZNSt3__16vectorI7ChannelNS_9allocatorIS1_EEE7__allocB7v160006Ev, symObjAddr: 0x4490, symBinAddr: 0x100006E38, symSize: 0x28 }
  - { offsetInCU: 0x174E6, offset: 0x174E6, size: 0x8, addend: 0x0, symName: __ZNKSt3__16vectorI7ChannelNS_9allocatorIS1_EEE8capacityB7v160006Ev, symObjAddr: 0x44B8, symBinAddr: 0x100006E60, symSize: 0x40 }
  - { offsetInCU: 0x1750C, offset: 0x1750C, size: 0x8, addend: 0x0, symName: __ZNKSt3__16vectorI7ChannelNS_9allocatorIS1_EEE31__annotate_contiguous_containerB7v160006EPKvS6_S6_S6_, symObjAddr: 0x44F8, symBinAddr: 0x100006EA0, symSize: 0x20 }
  - { offsetInCU: 0x1755E, offset: 0x1755E, size: 0x8, addend: 0x0, symName: __ZNKSt3__16vectorI7ChannelNS_9allocatorIS1_EEE4dataB7v160006Ev, symObjAddr: 0x4518, symBinAddr: 0x100006EC0, symSize: 0x28 }
  - { offsetInCU: 0x17584, offset: 0x17584, size: 0x8, addend: 0x0, symName: __ZNKSt3__16vectorI7ChannelNS_9allocatorIS1_EEE4sizeB7v160006Ev, symObjAddr: 0x4540, symBinAddr: 0x100006EE8, symSize: 0x28 }
  - { offsetInCU: 0x175AA, offset: 0x175AA, size: 0x8, addend: 0x0, symName: __ZNSt3__16vectorI7ChannelNS_9allocatorIS1_EEE22__base_destruct_at_endB7v160006EPS1_, symObjAddr: 0x457C, symBinAddr: 0x100006F24, symSize: 0xA0 }
  - { offsetInCU: 0x175EE, offset: 0x175EE, size: 0x8, addend: 0x0, symName: __ZNSt3__116allocator_traitsINS_9allocatorI7ChannelEEE7destroyB7v160006IS2_vEEvRS3_PT_, symObjAddr: 0x461C, symBinAddr: 0x100006FC4, symSize: 0x2C }
  - { offsetInCU: 0x1762B, offset: 0x1762B, size: 0x8, addend: 0x0, symName: __ZNSt3__19allocatorI7ChannelE7destroyB7v160006EPS1_, symObjAddr: 0x4648, symBinAddr: 0x100006FF0, symSize: 0x28 }
  - { offsetInCU: 0x1765F, offset: 0x1765F, size: 0x8, addend: 0x0, symName: __ZN7ChannelD1Ev, symObjAddr: 0x4670, symBinAddr: 0x100007018, symSize: 0x2C }
  - { offsetInCU: 0x1768B, offset: 0x1768B, size: 0x8, addend: 0x0, symName: __ZN7ChannelD2Ev, symObjAddr: 0x469C, symBinAddr: 0x100007044, symSize: 0xCC }
  - { offsetInCU: 0x176B7, offset: 0x176B7, size: 0x8, addend: 0x0, symName: __ZNSt3__19allocatorI7ChannelE10deallocateB7v160006EPS1_m, symObjAddr: 0x4768, symBinAddr: 0x100007110, symSize: 0x74 }
  - { offsetInCU: 0x176F9, offset: 0x176F9, size: 0x8, addend: 0x0, symName: __ZNSt3__117__compressed_pairIP7ChannelNS_9allocatorIS1_EEE6secondB7v160006Ev, symObjAddr: 0x47DC, symBinAddr: 0x100007184, symSize: 0x24 }
  - { offsetInCU: 0x1771F, offset: 0x1771F, size: 0x8, addend: 0x0, symName: __ZNSt3__122__compressed_pair_elemINS_9allocatorI7ChannelEELi1ELb1EE5__getB7v160006Ev, symObjAddr: 0x4800, symBinAddr: 0x1000071A8, symSize: 0x14 }
  - { offsetInCU: 0x17745, offset: 0x17745, size: 0x8, addend: 0x0, symName: __ZNKSt3__16vectorI7ChannelNS_9allocatorIS1_EEE9__end_capB7v160006Ev, symObjAddr: 0x4814, symBinAddr: 0x1000071BC, symSize: 0x28 }
  - { offsetInCU: 0x1776B, offset: 0x1776B, size: 0x8, addend: 0x0, symName: __ZNKSt3__117__compressed_pairIP7ChannelNS_9allocatorIS1_EEE5firstB7v160006Ev, symObjAddr: 0x483C, symBinAddr: 0x1000071E4, symSize: 0x24 }
  - { offsetInCU: 0x17791, offset: 0x17791, size: 0x8, addend: 0x0, symName: __ZNKSt3__122__compressed_pair_elemIP7ChannelLi0ELb0EE5__getB7v160006Ev, symObjAddr: 0x4860, symBinAddr: 0x100007208, symSize: 0x14 }
  - { offsetInCU: 0x177B7, offset: 0x177B7, size: 0x8, addend: 0x0, symName: __ZNSt3__111char_traitsIcE6lengthEPKc, symObjAddr: 0x4A68, symBinAddr: 0x100007410, symSize: 0x48 }
  - { offsetInCU: 0x177F8, offset: 0x177F8, size: 0x8, addend: 0x0, symName: __ZNKSt3__113basic_ostreamIcNS_11char_traitsIcEEE6sentrycvbB7v160006Ev, symObjAddr: 0x4AB0, symBinAddr: 0x100007458, symSize: 0x1C }
  - { offsetInCU: 0x1781E, offset: 0x1781E, size: 0x8, addend: 0x0, symName: __ZNSt3__119ostreambuf_iteratorIcNS_11char_traitsIcEEEC1B7v160006ERNS_13basic_ostreamIcS2_EE, symObjAddr: 0x4D14, symBinAddr: 0x1000076BC, symSize: 0x34 }
  - { offsetInCU: 0x17856, offset: 0x17856, size: 0x8, addend: 0x0, symName: __ZNKSt3__18ios_base5flagsB7v160006Ev, symObjAddr: 0x4D48, symBinAddr: 0x1000076F0, symSize: 0x18 }
  - { offsetInCU: 0x1787E, offset: 0x1787E, size: 0x8, addend: 0x0, symName: __ZNKSt3__19basic_iosIcNS_11char_traitsIcEEE4fillB7v160006Ev, symObjAddr: 0x4D60, symBinAddr: 0x100007708, symSize: 0x64 }
  - { offsetInCU: 0x178A6, offset: 0x178A6, size: 0x8, addend: 0x0, symName: __ZNKSt3__119ostreambuf_iteratorIcNS_11char_traitsIcEEE6failedB7v160006Ev, symObjAddr: 0x4DC4, symBinAddr: 0x10000776C, symSize: 0x24 }
  - { offsetInCU: 0x178CC, offset: 0x178CC, size: 0x8, addend: 0x0, symName: __ZNSt3__19basic_iosIcNS_11char_traitsIcEEE8setstateB7v160006Ej, symObjAddr: 0x4DE8, symBinAddr: 0x100007790, symSize: 0x2C }
  - { offsetInCU: 0x17901, offset: 0x17901, size: 0x8, addend: 0x0, symName: __ZNKSt3__18ios_base5widthB7v160006Ev, symObjAddr: 0x4E14, symBinAddr: 0x1000077BC, symSize: 0x18 }
  - { offsetInCU: 0x17929, offset: 0x17929, size: 0x8, addend: 0x0, symName: __ZNSt3__115basic_streambufIcNS_11char_traitsIcEEE5sputnB7v160006EPKcl, symObjAddr: 0x4E2C, symBinAddr: 0x1000077D4, symSize: 0x3C }
  - { offsetInCU: 0x1796B, offset: 0x1796B, size: 0x8, addend: 0x0, symName: __ZNSt3__112basic_stringIcNS_11char_traitsIcEENS_9allocatorIcEEEC1B7v160006Emc, symObjAddr: 0x4E68, symBinAddr: 0x100007810, symSize: 0x3C }
  - { offsetInCU: 0x179B3, offset: 0x179B3, size: 0x8, addend: 0x0, symName: __ZNKSt3__112basic_stringIcNS_11char_traitsIcEENS_9allocatorIcEEE4dataB7v160006Ev, symObjAddr: 0x4EA4, symBinAddr: 0x10000784C, symSize: 0x28 }
  - { offsetInCU: 0x179D9, offset: 0x179D9, size: 0x8, addend: 0x0, symName: __ZNSt3__18ios_base5widthB7v160006El, symObjAddr: 0x4ECC, symBinAddr: 0x100007874, symSize: 0x2C }
  - { offsetInCU: 0x17A1F, offset: 0x17A1F, size: 0x8, addend: 0x0, symName: __ZNSt3__112basic_stringIcNS_11char_traitsIcEENS_9allocatorIcEEEC2B7v160006Emc, symObjAddr: 0x4EF8, symBinAddr: 0x1000078A0, symSize: 0x54 }
  - { offsetInCU: 0x17A67, offset: 0x17A67, size: 0x8, addend: 0x0, symName: __ZNKSt3__112basic_stringIcNS_11char_traitsIcEENS_9allocatorIcEEE13__get_pointerB7v160006Ev, symObjAddr: 0x4F60, symBinAddr: 0x100007908, symSize: 0x54 }
  - { offsetInCU: 0x17A8D, offset: 0x17A8D, size: 0x8, addend: 0x0, symName: __ZNKSt3__112basic_stringIcNS_11char_traitsIcEENS_9allocatorIcEEE9__is_longB7v160006Ev, symObjAddr: 0x4FB4, symBinAddr: 0x10000795C, symSize: 0x74 }
  - { offsetInCU: 0x17AB3, offset: 0x17AB3, size: 0x8, addend: 0x0, symName: __ZNKSt3__112basic_stringIcNS_11char_traitsIcEENS_9allocatorIcEEE18__get_long_pointerB7v160006Ev, symObjAddr: 0x5028, symBinAddr: 0x1000079D0, symSize: 0x28 }
  - { offsetInCU: 0x17AD9, offset: 0x17AD9, size: 0x8, addend: 0x0, symName: __ZNKSt3__112basic_stringIcNS_11char_traitsIcEENS_9allocatorIcEEE19__get_short_pointerB7v160006Ev, symObjAddr: 0x5050, symBinAddr: 0x1000079F8, symSize: 0x28 }
  - { offsetInCU: 0x17AFF, offset: 0x17AFF, size: 0x8, addend: 0x0, symName: __ZNKSt3__117__compressed_pairINS_12basic_stringIcNS_11char_traitsIcEENS_9allocatorIcEEE5__repES5_E5firstB7v160006Ev, symObjAddr: 0x5078, symBinAddr: 0x100007A20, symSize: 0x24 }
  - { offsetInCU: 0x17B25, offset: 0x17B25, size: 0x8, addend: 0x0, symName: __ZNKSt3__122__compressed_pair_elemINS_12basic_stringIcNS_11char_traitsIcEENS_9allocatorIcEEE5__repELi0ELb0EE5__getB7v160006Ev, symObjAddr: 0x509C, symBinAddr: 0x100007A44, symSize: 0x14 }
  - { offsetInCU: 0x17B4B, offset: 0x17B4B, size: 0x8, addend: 0x0, symName: __ZNSt3__114pointer_traitsIPKcE10pointer_toB7v160006ERS1_, symObjAddr: 0x50B0, symBinAddr: 0x100007A58, symSize: 0x14 }
  - { offsetInCU: 0x17B6E, offset: 0x17B6E, size: 0x8, addend: 0x0, symName: __ZNSt3__119ostreambuf_iteratorIcNS_11char_traitsIcEEEC2B7v160006ERNS_13basic_ostreamIcS2_EE, symObjAddr: 0x50C4, symBinAddr: 0x100007A6C, symSize: 0x68 }
  - { offsetInCU: 0x17BA6, offset: 0x17BA6, size: 0x8, addend: 0x0, symName: __ZNKSt3__19basic_iosIcNS_11char_traitsIcEEE5rdbufB7v160006Ev, symObjAddr: 0x512C, symBinAddr: 0x100007AD4, symSize: 0x24 }
  - { offsetInCU: 0x17BCE, offset: 0x17BCE, size: 0x8, addend: 0x0, symName: __ZNKSt3__18ios_base5rdbufB7v160006Ev, symObjAddr: 0x5150, symBinAddr: 0x100007AF8, symSize: 0x18 }
  - { offsetInCU: 0x17BF4, offset: 0x17BF4, size: 0x8, addend: 0x0, symName: __ZNSt3__111char_traitsIcE11eq_int_typeEii, symObjAddr: 0x5168, symBinAddr: 0x100007B10, symSize: 0x28 }
  - { offsetInCU: 0x17C25, offset: 0x17C25, size: 0x8, addend: 0x0, symName: __ZNSt3__111char_traitsIcE3eofEv, symObjAddr: 0x5190, symBinAddr: 0x100007B38, symSize: 0x8 }
  - { offsetInCU: 0x17C39, offset: 0x17C39, size: 0x8, addend: 0x0, symName: __ZNKSt3__19basic_iosIcNS_11char_traitsIcEEE5widenB7v160006Ec, symObjAddr: 0x5198, symBinAddr: 0x100007B40, symSize: 0x8C }
  - { offsetInCU: 0x17CA7, offset: 0x17CA7, size: 0x8, addend: 0x0, symName: __ZNKSt3__15ctypeIcE5widenB7v160006Ec, symObjAddr: 0x5250, symBinAddr: 0x100007BF8, symSize: 0x38 }
  - { offsetInCU: 0x17CDC, offset: 0x17CDC, size: 0x8, addend: 0x0, symName: __ZNSt3__18ios_base8setstateB7v160006Ej, symObjAddr: 0x5288, symBinAddr: 0x100007C30, symSize: 0x34 }
  - { offsetInCU: 0x17D13, offset: 0x17D13, size: 0x8, addend: 0x0, symName: __ZNSt3__16vectorIiNS_9allocatorIiEEEC2B7v160006Ev, symObjAddr: 0x52E0, symBinAddr: 0x100007C88, symSize: 0x4C }
  - { offsetInCU: 0x17D3D, offset: 0x17D3D, size: 0x8, addend: 0x0, symName: __ZNSt3__117__compressed_pairIPiNS_9allocatorIiEEEC1B7v160006IDnNS_18__default_init_tagEEEOT_OT0_, symObjAddr: 0x532C, symBinAddr: 0x100007CD4, symSize: 0x3C }
  - { offsetInCU: 0x17D95, offset: 0x17D95, size: 0x8, addend: 0x0, symName: __ZNSt3__117__compressed_pairIPiNS_9allocatorIiEEEC2B7v160006IDnNS_18__default_init_tagEEEOT_OT0_, symObjAddr: 0x5378, symBinAddr: 0x100007D20, symSize: 0x40 }
  - { offsetInCU: 0x17DED, offset: 0x17DED, size: 0x8, addend: 0x0, symName: __ZNSt3__122__compressed_pair_elemIPiLi0ELb0EEC2B7v160006IDnvEEOT_, symObjAddr: 0x53B8, symBinAddr: 0x100007D60, symSize: 0x1C }
  - { offsetInCU: 0x17E2F, offset: 0x17E2F, size: 0x8, addend: 0x0, symName: __ZNSt3__122__compressed_pair_elemINS_9allocatorIiEELi1ELb1EEC2B7v160006ENS_18__default_init_tagE, symObjAddr: 0x53D4, symBinAddr: 0x100007D7C, symSize: 0x2C }
  - { offsetInCU: 0x17E64, offset: 0x17E64, size: 0x8, addend: 0x0, symName: __ZNSt3__19allocatorIiEC2B7v160006Ev, symObjAddr: 0x5400, symBinAddr: 0x100007DA8, symSize: 0x2C }
  - { offsetInCU: 0x17E8E, offset: 0x17E8E, size: 0x8, addend: 0x0, symName: __ZNSt3__116__non_trivial_ifILb1ENS_9allocatorIiEEEC2B7v160006Ev, symObjAddr: 0x542C, symBinAddr: 0x100007DD4, symSize: 0x14 }
  - { offsetInCU: 0x17EB8, offset: 0x17EB8, size: 0x8, addend: 0x0, symName: __ZNSt3__16vectorIiNS_9allocatorIiEEED2B7v160006Ev, symObjAddr: 0x5440, symBinAddr: 0x100007DE8, symSize: 0x3C }
  - { offsetInCU: 0x17EE2, offset: 0x17EE2, size: 0x8, addend: 0x0, symName: __ZNSt3__16vectorIiNS_9allocatorIiEEE16__destroy_vectorC1ERS3_, symObjAddr: 0x547C, symBinAddr: 0x100007E24, symSize: 0x34 }
  - { offsetInCU: 0x17F1B, offset: 0x17F1B, size: 0x8, addend: 0x0, symName: __ZNSt3__16vectorIiNS_9allocatorIiEEE16__destroy_vectorclB7v160006Ev, symObjAddr: 0x54B0, symBinAddr: 0x100007E58, symSize: 0x9C }
  - { offsetInCU: 0x17F41, offset: 0x17F41, size: 0x8, addend: 0x0, symName: __ZNSt3__16vectorIiNS_9allocatorIiEEE16__destroy_vectorC2ERS3_, symObjAddr: 0x554C, symBinAddr: 0x100007EF4, symSize: 0x20 }
  - { offsetInCU: 0x17F7A, offset: 0x17F7A, size: 0x8, addend: 0x0, symName: __ZNKSt3__16vectorIiNS_9allocatorIiEEE17__annotate_deleteB7v160006Ev, symObjAddr: 0x556C, symBinAddr: 0x100007F14, symSize: 0xB8 }
  - { offsetInCU: 0x17FA0, offset: 0x17FA0, size: 0x8, addend: 0x0, symName: __ZNSt3__16vectorIiNS_9allocatorIiEEE7__clearB7v160006Ev, symObjAddr: 0x5634, symBinAddr: 0x100007FDC, symSize: 0x28 }
  - { offsetInCU: 0x17FC6, offset: 0x17FC6, size: 0x8, addend: 0x0, symName: __ZNSt3__116allocator_traitsINS_9allocatorIiEEE10deallocateB7v160006ERS2_Pim, symObjAddr: 0x565C, symBinAddr: 0x100008004, symSize: 0x34 }
  - { offsetInCU: 0x18008, offset: 0x18008, size: 0x8, addend: 0x0, symName: __ZNSt3__16vectorIiNS_9allocatorIiEEE7__allocB7v160006Ev, symObjAddr: 0x5690, symBinAddr: 0x100008038, symSize: 0x28 }
  - { offsetInCU: 0x1802E, offset: 0x1802E, size: 0x8, addend: 0x0, symName: __ZNKSt3__16vectorIiNS_9allocatorIiEEE8capacityB7v160006Ev, symObjAddr: 0x56B8, symBinAddr: 0x100008060, symSize: 0x40 }
  - { offsetInCU: 0x18054, offset: 0x18054, size: 0x8, addend: 0x0, symName: __ZNKSt3__16vectorIiNS_9allocatorIiEEE31__annotate_contiguous_containerB7v160006EPKvS5_S5_S5_, symObjAddr: 0x56F8, symBinAddr: 0x1000080A0, symSize: 0x20 }
  - { offsetInCU: 0x180A6, offset: 0x180A6, size: 0x8, addend: 0x0, symName: __ZNKSt3__16vectorIiNS_9allocatorIiEEE4dataB7v160006Ev, symObjAddr: 0x5718, symBinAddr: 0x1000080C0, symSize: 0x28 }
  - { offsetInCU: 0x180CC, offset: 0x180CC, size: 0x8, addend: 0x0, symName: __ZNSt3__16vectorIiNS_9allocatorIiEEE22__base_destruct_at_endB7v160006EPi, symObjAddr: 0x5754, symBinAddr: 0x1000080FC, symSize: 0xA0 }
  - { offsetInCU: 0x18110, offset: 0x18110, size: 0x8, addend: 0x0, symName: __ZNSt3__116allocator_traitsINS_9allocatorIiEEE7destroyB7v160006IivEEvRS2_PT_, symObjAddr: 0x57F4, symBinAddr: 0x10000819C, symSize: 0x2C }
  - { offsetInCU: 0x1814D, offset: 0x1814D, size: 0x8, addend: 0x0, symName: __ZNSt3__19allocatorIiE7destroyB7v160006EPi, symObjAddr: 0x5820, symBinAddr: 0x1000081C8, symSize: 0x14 }
  - { offsetInCU: 0x18181, offset: 0x18181, size: 0x8, addend: 0x0, symName: __ZNSt3__19allocatorIiE10deallocateB7v160006EPim, symObjAddr: 0x5834, symBinAddr: 0x1000081DC, symSize: 0x70 }
  - { offsetInCU: 0x181C3, offset: 0x181C3, size: 0x8, addend: 0x0, symName: __ZNSt3__117__compressed_pairIPiNS_9allocatorIiEEE6secondB7v160006Ev, symObjAddr: 0x58A4, symBinAddr: 0x10000824C, symSize: 0x24 }
  - { offsetInCU: 0x181E9, offset: 0x181E9, size: 0x8, addend: 0x0, symName: __ZNSt3__122__compressed_pair_elemINS_9allocatorIiEELi1ELb1EE5__getB7v160006Ev, symObjAddr: 0x58C8, symBinAddr: 0x100008270, symSize: 0x14 }
  - { offsetInCU: 0x1820F, offset: 0x1820F, size: 0x8, addend: 0x0, symName: __ZNKSt3__16vectorIiNS_9allocatorIiEEE9__end_capB7v160006Ev, symObjAddr: 0x58DC, symBinAddr: 0x100008284, symSize: 0x28 }
  - { offsetInCU: 0x18235, offset: 0x18235, size: 0x8, addend: 0x0, symName: __ZNKSt3__117__compressed_pairIPiNS_9allocatorIiEEE5firstB7v160006Ev, symObjAddr: 0x5904, symBinAddr: 0x1000082AC, symSize: 0x24 }
  - { offsetInCU: 0x1825B, offset: 0x1825B, size: 0x8, addend: 0x0, symName: __ZNKSt3__122__compressed_pair_elemIPiLi0ELb0EE5__getB7v160006Ev, symObjAddr: 0x5928, symBinAddr: 0x1000082D0, symSize: 0x14 }
  - { offsetInCU: 0x18281, offset: 0x18281, size: 0x8, addend: 0x0, symName: __ZNSt3__112basic_stringIcNS_11char_traitsIcEENS_9allocatorIcEEEC2B7v160006IDnEEPKc, symObjAddr: 0x593C, symBinAddr: 0x1000082E4, symSize: 0x60 }
  - { offsetInCU: 0x182BF, offset: 0x182BF, size: 0x8, addend: 0x0, symName: __ZNSt3__16vectorIiNS_9allocatorIiEEE9__end_capB7v160006Ev, symObjAddr: 0x599C, symBinAddr: 0x100008344, symSize: 0x28 }
  - { offsetInCU: 0x182E5, offset: 0x182E5, size: 0x8, addend: 0x0, symName: __ZNSt3__16vectorIiNS_9allocatorIiEEE22__construct_one_at_endB7v160006IJRKiEEEvDpOT_, symObjAddr: 0x59C4, symBinAddr: 0x10000836C, symSize: 0x98 }
  - { offsetInCU: 0x18334, offset: 0x18334, size: 0x8, addend: 0x0, symName: __ZNSt3__16vectorIiNS_9allocatorIiEEE21__push_back_slow_pathIRKiEEvOT_, symObjAddr: 0x5A5C, symBinAddr: 0x100008404, symSize: 0xE0 }
  - { offsetInCU: 0x18392, offset: 0x18392, size: 0x8, addend: 0x0, symName: __ZNSt3__117__compressed_pairIPiNS_9allocatorIiEEE5firstB7v160006Ev, symObjAddr: 0x5B3C, symBinAddr: 0x1000084E4, symSize: 0x24 }
  - { offsetInCU: 0x183B8, offset: 0x183B8, size: 0x8, addend: 0x0, symName: __ZNSt3__122__compressed_pair_elemIPiLi0ELb0EE5__getB7v160006Ev, symObjAddr: 0x5B60, symBinAddr: 0x100008508, symSize: 0x14 }
  - { offsetInCU: 0x183F7, offset: 0x183F7, size: 0x8, addend: 0x0, symName: __ZNSt3__16vectorIiNS_9allocatorIiEEE21_ConstructTransactionC1B7v160006ERS3_m, symObjAddr: 0x5B74, symBinAddr: 0x10000851C, symSize: 0x3C }
  - { offsetInCU: 0x1843F, offset: 0x1843F, size: 0x8, addend: 0x0, symName: __ZNSt3__116allocator_traitsINS_9allocatorIiEEE9constructB7v160006IiJRKiEvEEvRS2_PT_DpOT0_, symObjAddr: 0x5BB0, symBinAddr: 0x100008558, symSize: 0x34 }
  - { offsetInCU: 0x18496, offset: 0x18496, size: 0x8, addend: 0x0, symName: __ZNSt3__16vectorIiNS_9allocatorIiEEE21_ConstructTransactionD1B7v160006Ev, symObjAddr: 0x5BE4, symBinAddr: 0x10000858C, symSize: 0x2C }
  - { offsetInCU: 0x184C0, offset: 0x184C0, size: 0x8, addend: 0x0, symName: __ZNSt3__16vectorIiNS_9allocatorIiEEE21_ConstructTransactionC2B7v160006ERS3_m, symObjAddr: 0x5C10, symBinAddr: 0x1000085B8, symSize: 0x44 }
  - { offsetInCU: 0x18508, offset: 0x18508, size: 0x8, addend: 0x0, symName: __ZNSt3__19allocatorIiE9constructB7v160006IiJRKiEEEvPT_DpOT0_, symObjAddr: 0x5C54, symBinAddr: 0x1000085FC, symSize: 0x28 }
  - { offsetInCU: 0x1855E, offset: 0x1855E, size: 0x8, addend: 0x0, symName: __ZNSt3__16vectorIiNS_9allocatorIiEEE21_ConstructTransactionD2B7v160006Ev, symObjAddr: 0x5C7C, symBinAddr: 0x100008624, symSize: 0x20 }
  - { offsetInCU: 0x18588, offset: 0x18588, size: 0x8, addend: 0x0, symName: __ZNKSt3__16vectorIiNS_9allocatorIiEEE11__recommendB7v160006Em, symObjAddr: 0x5C9C, symBinAddr: 0x100008644, symSize: 0xB4 }
  - { offsetInCU: 0x185DD, offset: 0x185DD, size: 0x8, addend: 0x0, symName: __ZNSt3__114__split_bufferIiRNS_9allocatorIiEEEC1EmmS3_, symObjAddr: 0x5D50, symBinAddr: 0x1000086F8, symSize: 0x44 }
  - { offsetInCU: 0x18633, offset: 0x18633, size: 0x8, addend: 0x0, symName: __ZNSt3__114__split_bufferIiRNS_9allocatorIiEEED1Ev, symObjAddr: 0x5EAC, symBinAddr: 0x100008854, symSize: 0x2C }
  - { offsetInCU: 0x1865F, offset: 0x1865F, size: 0x8, addend: 0x0, symName: __ZNKSt3__16vectorIiNS_9allocatorIiEEE8max_sizeEv, symObjAddr: 0x5ED8, symBinAddr: 0x100008880, symSize: 0x74 }
  - { offsetInCU: 0x18687, offset: 0x18687, size: 0x8, addend: 0x0, symName: __ZNKSt3__16vectorIiNS_9allocatorIiEEE20__throw_length_errorB7v160006Ev, symObjAddr: 0x5F4C, symBinAddr: 0x1000088F4, symSize: 0x1C }
  - { offsetInCU: 0x186B7, offset: 0x186B7, size: 0x8, addend: 0x0, symName: __ZNSt3__116allocator_traitsINS_9allocatorIiEEE8max_sizeB7v160006IS2_vEEmRKS2_, symObjAddr: 0x5FC0, symBinAddr: 0x100008968, symSize: 0x24 }
  - { offsetInCU: 0x186E5, offset: 0x186E5, size: 0x8, addend: 0x0, symName: __ZNKSt3__16vectorIiNS_9allocatorIiEEE7__allocB7v160006Ev, symObjAddr: 0x5FE4, symBinAddr: 0x10000898C, symSize: 0x28 }
  - { offsetInCU: 0x1870B, offset: 0x1870B, size: 0x8, addend: 0x0, symName: __ZNSt3__114numeric_limitsIlE3maxB7v160006Ev, symObjAddr: 0x600C, symBinAddr: 0x1000089B4, symSize: 0x14 }
  - { offsetInCU: 0x18729, offset: 0x18729, size: 0x8, addend: 0x0, symName: __ZNKSt3__16__lessImmEclB7v160006ERKmS3_, symObjAddr: 0x6074, symBinAddr: 0x100008A1C, symSize: 0x34 }
  - { offsetInCU: 0x1876B, offset: 0x1876B, size: 0x8, addend: 0x0, symName: __ZNKSt3__19allocatorIiE8max_sizeB7v160006Ev, symObjAddr: 0x60A8, symBinAddr: 0x100008A50, symSize: 0x14 }
  - { offsetInCU: 0x18791, offset: 0x18791, size: 0x8, addend: 0x0, symName: __ZNKSt3__117__compressed_pairIPiNS_9allocatorIiEEE6secondB7v160006Ev, symObjAddr: 0x60BC, symBinAddr: 0x100008A64, symSize: 0x24 }
  - { offsetInCU: 0x187B7, offset: 0x187B7, size: 0x8, addend: 0x0, symName: __ZNKSt3__122__compressed_pair_elemINS_9allocatorIiEELi1ELb1EE5__getB7v160006Ev, symObjAddr: 0x60E0, symBinAddr: 0x100008A88, symSize: 0x14 }
  - { offsetInCU: 0x187DD, offset: 0x187DD, size: 0x8, addend: 0x0, symName: __ZNSt3__123__libcpp_numeric_limitsIlLb1EE3maxB7v160006Ev, symObjAddr: 0x60F4, symBinAddr: 0x100008A9C, symSize: 0x8 }
  - { offsetInCU: 0x187F1, offset: 0x187F1, size: 0x8, addend: 0x0, symName: __ZNSt12length_errorC1B7v160006EPKc, symObjAddr: 0x6160, symBinAddr: 0x100008B08, symSize: 0x34 }
  - { offsetInCU: 0x18829, offset: 0x18829, size: 0x8, addend: 0x0, symName: __ZNSt12length_errorC2B7v160006EPKc, symObjAddr: 0x6194, symBinAddr: 0x100008B3C, symSize: 0x4C }
  - { offsetInCU: 0x18861, offset: 0x18861, size: 0x8, addend: 0x0, symName: __ZNSt3__114__split_bufferIiRNS_9allocatorIiEEEC2EmmS3_, symObjAddr: 0x6234, symBinAddr: 0x100008BDC, symSize: 0xD4 }
  - { offsetInCU: 0x188D4, offset: 0x188D4, size: 0x8, addend: 0x0, symName: __ZNSt3__117__compressed_pairIPiRNS_9allocatorIiEEEC1B7v160006IDnS4_EEOT_OT0_, symObjAddr: 0x6308, symBinAddr: 0x100008CB0, symSize: 0x3C }
  - { offsetInCU: 0x1892C, offset: 0x1892C, size: 0x8, addend: 0x0, symName: __ZNSt3__114__split_bufferIiRNS_9allocatorIiEEE7__allocB7v160006Ev, symObjAddr: 0x6384, symBinAddr: 0x100008D2C, symSize: 0x28 }
  - { offsetInCU: 0x18952, offset: 0x18952, size: 0x8, addend: 0x0, symName: __ZNSt3__114__split_bufferIiRNS_9allocatorIiEEE9__end_capB7v160006Ev, symObjAddr: 0x63AC, symBinAddr: 0x100008D54, symSize: 0x28 }
  - { offsetInCU: 0x18978, offset: 0x18978, size: 0x8, addend: 0x0, symName: __ZNSt3__117__compressed_pairIPiRNS_9allocatorIiEEEC2B7v160006IDnS4_EEOT_OT0_, symObjAddr: 0x63D4, symBinAddr: 0x100008D7C, symSize: 0x48 }
  - { offsetInCU: 0x189D0, offset: 0x189D0, size: 0x8, addend: 0x0, symName: __ZNSt3__122__compressed_pair_elemIRNS_9allocatorIiEELi1ELb0EEC2B7v160006IS3_vEEOT_, symObjAddr: 0x641C, symBinAddr: 0x100008DC4, symSize: 0x20 }
  - { offsetInCU: 0x18A12, offset: 0x18A12, size: 0x8, addend: 0x0, symName: __ZNSt3__19allocatorIiE8allocateB7v160006Em, symObjAddr: 0x643C, symBinAddr: 0x100008DE4, symSize: 0x84 }
  - { offsetInCU: 0x18A46, offset: 0x18A46, size: 0x8, addend: 0x0, symName: __ZNSt3__117__compressed_pairIPiRNS_9allocatorIiEEE6secondB7v160006Ev, symObjAddr: 0x64C0, symBinAddr: 0x100008E68, symSize: 0x28 }
  - { offsetInCU: 0x18A6C, offset: 0x18A6C, size: 0x8, addend: 0x0, symName: __ZNSt3__122__compressed_pair_elemIRNS_9allocatorIiEELi1ELb0EE5__getB7v160006Ev, symObjAddr: 0x64E8, symBinAddr: 0x100008E90, symSize: 0x18 }
  - { offsetInCU: 0x18A92, offset: 0x18A92, size: 0x8, addend: 0x0, symName: __ZNSt3__117__compressed_pairIPiRNS_9allocatorIiEEE5firstB7v160006Ev, symObjAddr: 0x6500, symBinAddr: 0x100008EA8, symSize: 0x24 }
  - { offsetInCU: 0x18AB8, offset: 0x18AB8, size: 0x8, addend: 0x0, symName: __ZNSt3__116reverse_iteratorIPiEC1B7v160006ES1_, symObjAddr: 0x660C, symBinAddr: 0x100008FB4, symSize: 0x34 }
  - { offsetInCU: 0x18AF0, offset: 0x18AF0, size: 0x8, addend: 0x0, symName: __ZNKSt3__116reverse_iteratorIPiE4baseB7v160006Ev, symObjAddr: 0x6640, symBinAddr: 0x100008FE8, symSize: 0x18 }
  - { offsetInCU: 0x18B16, offset: 0x18B16, size: 0x8, addend: 0x0, symName: __ZNKSt3__16vectorIiNS_9allocatorIiEEE14__annotate_newB7v160006Em, symObjAddr: 0x6694, symBinAddr: 0x10000903C, symSize: 0xAC }
  - { offsetInCU: 0x18B4B, offset: 0x18B4B, size: 0x8, addend: 0x0, symName: __ZNKSt3__116reverse_iteratorIPiEdeB7v160006Ev, symObjAddr: 0x67E8, symBinAddr: 0x100009190, symSize: 0x28 }
  - { offsetInCU: 0x18B7F, offset: 0x18B7F, size: 0x8, addend: 0x0, symName: __ZNSt3__116reverse_iteratorIPiEppB7v160006Ev, symObjAddr: 0x6810, symBinAddr: 0x1000091B8, symSize: 0x20 }
  - { offsetInCU: 0x18BAA, offset: 0x18BAA, size: 0x8, addend: 0x0, symName: __ZNSt3__119__to_address_helperINS_16reverse_iteratorIPiEEvE6__callB7v160006ERKS3_, symObjAddr: 0x68A8, symBinAddr: 0x100009250, symSize: 0x4C }
  - { offsetInCU: 0x18BCD, offset: 0x18BCD, size: 0x8, addend: 0x0, symName: __ZNKSt3__116reverse_iteratorIPiEptB7v160006Ev, symObjAddr: 0x68F4, symBinAddr: 0x10000929C, symSize: 0x24 }
  - { offsetInCU: 0x18C16, offset: 0x18C16, size: 0x8, addend: 0x0, symName: __ZNKSt3__111__move_loopINS_17_ClassicAlgPolicyEEclB7v160006INS_16reverse_iteratorIPiEES6_S6_EENS_4pairIT_T1_EES8_T0_S9_, symObjAddr: 0x6BA8, symBinAddr: 0x100009550, symSize: 0xA0 }
  - { offsetInCU: 0x18C81, offset: 0x18C81, size: 0x8, addend: 0x0, symName: __ZNSt3__18_IterOpsINS_17_ClassicAlgPolicyEE11__iter_moveB7v160006IRNS_16reverse_iteratorIPiEEEENS_9enable_ifIXsr12is_referenceIDTdeclsr3stdE7declvalIRT_EEEEE5valueEDTclsr3stdE4movedeclsr3stdE7declvalISA_EEEEE4typeEOS9_, symObjAddr: 0x6DA8, symBinAddr: 0x100009750, symSize: 0x28 }
  - { offsetInCU: 0x18CAD, offset: 0x18CAD, size: 0x8, addend: 0x0, symName: __ZNSt3__18_IterOpsINS_17_ClassicAlgPolicyEE25__validate_iter_referenceB7v160006IRNS_16reverse_iteratorIPiEEEEvv, symObjAddr: 0x6DD0, symBinAddr: 0x100009778, symSize: 0x4 }
  - { offsetInCU: 0x18CCB, offset: 0x18CCB, size: 0x8, addend: 0x0, symName: __ZNSt3__118__unwrap_iter_implINS_16reverse_iteratorIPiEELb0EE8__unwrapB7v160006ES3_, symObjAddr: 0x6DD4, symBinAddr: 0x10000977C, symSize: 0x24 }
  - { offsetInCU: 0x18CEE, offset: 0x18CEE, size: 0x8, addend: 0x0, symName: __ZNSt3__14pairINS_16reverse_iteratorIPiEES3_EC1B7v160006ERKS3_S6_, symObjAddr: 0x6DF8, symBinAddr: 0x1000097A0, symSize: 0x3C }
  - { offsetInCU: 0x18D34, offset: 0x18D34, size: 0x8, addend: 0x0, symName: __ZNSt3__14pairINS_16reverse_iteratorIPiEES3_EC2B7v160006ERKS3_S6_, symObjAddr: 0x6E34, symBinAddr: 0x1000097DC, symSize: 0x34 }
  - { offsetInCU: 0x18D7A, offset: 0x18D7A, size: 0x8, addend: 0x0, symName: __ZNSt3__118__unwrap_iter_implINS_16reverse_iteratorIPiEELb0EE8__rewrapB7v160006ES3_S3_, symObjAddr: 0x6E68, symBinAddr: 0x100009810, symSize: 0x2C }
  - { offsetInCU: 0x18DA8, offset: 0x18DA8, size: 0x8, addend: 0x0, symName: __ZNSt3__116reverse_iteratorIPiEC2B7v160006ES1_, symObjAddr: 0x6E94, symBinAddr: 0x10000983C, symSize: 0x28 }
  - { offsetInCU: 0x18DE0, offset: 0x18DE0, size: 0x8, addend: 0x0, symName: __ZNSt3__114__split_bufferIiRNS_9allocatorIiEEED2Ev, symObjAddr: 0x6EBC, symBinAddr: 0x100009864, symSize: 0x80 }
  - { offsetInCU: 0x18E0C, offset: 0x18E0C, size: 0x8, addend: 0x0, symName: __ZNSt3__114__split_bufferIiRNS_9allocatorIiEEE5clearB7v160006Ev, symObjAddr: 0x6F3C, symBinAddr: 0x1000098E4, symSize: 0x28 }
  - { offsetInCU: 0x18E32, offset: 0x18E32, size: 0x8, addend: 0x0, symName: __ZNKSt3__114__split_bufferIiRNS_9allocatorIiEEE8capacityB7v160006Ev, symObjAddr: 0x6F64, symBinAddr: 0x10000990C, symSize: 0x40 }
  - { offsetInCU: 0x18E58, offset: 0x18E58, size: 0x8, addend: 0x0, symName: __ZNSt3__114__split_bufferIiRNS_9allocatorIiEEE17__destruct_at_endB7v160006EPi, symObjAddr: 0x6FA4, symBinAddr: 0x10000994C, symSize: 0x2C }
  - { offsetInCU: 0x18E8C, offset: 0x18E8C, size: 0x8, addend: 0x0, symName: __ZNSt3__114__split_bufferIiRNS_9allocatorIiEEE17__destruct_at_endB7v160006EPiNS_17integral_constantIbLb0EEE, symObjAddr: 0x6FD0, symBinAddr: 0x100009978, symSize: 0x94 }
  - { offsetInCU: 0x18ECD, offset: 0x18ECD, size: 0x8, addend: 0x0, symName: __ZNKSt3__114__split_bufferIiRNS_9allocatorIiEEE9__end_capB7v160006Ev, symObjAddr: 0x7064, symBinAddr: 0x100009A0C, symSize: 0x28 }
  - { offsetInCU: 0x18EF3, offset: 0x18EF3, size: 0x8, addend: 0x0, symName: __ZNKSt3__117__compressed_pairIPiRNS_9allocatorIiEEE5firstB7v160006Ev, symObjAddr: 0x708C, symBinAddr: 0x100009A34, symSize: 0x24 }
  - { offsetInCU: 0x18F19, offset: 0x18F19, size: 0x8, addend: 0x0, symName: __ZNSt3__14pairIi4UserEC1B7v160006ERKiRKS1_, symObjAddr: 0x70B0, symBinAddr: 0x100009A58, symSize: 0x3C }
  - { offsetInCU: 0x18F5F, offset: 0x18F5F, size: 0x8, addend: 0x0, symName: __ZNSt3__14pairIi4UserEC2B7v160006ERKiRKS1_, symObjAddr: 0x70EC, symBinAddr: 0x100009A94, symSize: 0x48 }
  - { offsetInCU: 0x18FA5, offset: 0x18FA5, size: 0x8, addend: 0x0, symName: __ZN4UserC1ERKS_, symObjAddr: 0x7134, symBinAddr: 0x100009ADC, symSize: 0x34 }
  - { offsetInCU: 0x18FDA, offset: 0x18FDA, size: 0x8, addend: 0x0, symName: __ZN4UserC2ERKS_, symObjAddr: 0x7168, symBinAddr: 0x100009B10, symSize: 0x138 }
  - { offsetInCU: 0x1900F, offset: 0x1900F, size: 0x8, addend: 0x0, symName: __ZNSt3__16__treeINS_12__value_typeIi4UserEENS_19__map_value_compareIiS3_NS_4lessIiEELb1EEENS_9allocatorIS3_EEE15__insert_uniqueB7v160006ERKNS_4pairIKiS2_EE, symObjAddr: 0x72A0, symBinAddr: 0x100009C48, symSize: 0x50 }
  - { offsetInCU: 0x19044, offset: 0x19044, size: 0x8, addend: 0x0, symName: __ZNSt3__14pairINS_14__map_iteratorINS_15__tree_iteratorINS_12__value_typeIi4UserEEPNS_11__tree_nodeIS5_PvEElEEEEbEC1B7v160006ISA_bEERKNS0_IT_T0_EE, symObjAddr: 0x72F0, symBinAddr: 0x100009C98, symSize: 0x34 }
  - { offsetInCU: 0x1908E, offset: 0x1908E, size: 0x8, addend: 0x0, symName: __ZNSt3__16__treeINS_12__value_typeIi4UserEENS_19__map_value_compareIiS3_NS_4lessIiEELb1EEENS_9allocatorIS3_EEE25__emplace_unique_key_argsIiJRKNS_4pairIKiS2_EEEEENSC_INS_15__tree_iteratorIS3_PNS_11__tree_nodeIS3_PvEElEEbEERKT_DpOT0_, symObjAddr: 0x7324, symBinAddr: 0x100009CCC, symSize: 0xF0 }
  - { offsetInCU: 0x1913A, offset: 0x1913A, size: 0x8, addend: 0x0, symName: __ZNSt3__122__tree_key_value_typesINS_12__value_typeIi4UserEEE9__get_keyB7v160006IKNS_4pairIKiS2_EEEENS_9enable_ifIXsr17__is_same_uncvrefIT_S8_EE5valueERS7_E4typeERSB_, symObjAddr: 0x7414, symBinAddr: 0x100009DBC, symSize: 0x14 }
  - { offsetInCU: 0x19167, offset: 0x19167, size: 0x8, addend: 0x0, symName: __ZNSt3__16__treeINS_12__value_typeIi4UserEENS_19__map_value_compareIiS3_NS_4lessIiEELb1EEENS_9allocatorIS3_EEE12__find_equalIiEERPNS_16__tree_node_baseIPvEERPNS_15__tree_end_nodeISF_EERKT_, symObjAddr: 0x7428, symBinAddr: 0x100009DD0, symSize: 0x184 }
  - { offsetInCU: 0x191D4, offset: 0x191D4, size: 0x8, addend: 0x0, symName: __ZNSt3__16__treeINS_12__value_typeIi4UserEENS_19__map_value_compareIiS3_NS_4lessIiEELb1EEENS_9allocatorIS3_EEE16__construct_nodeIJRKNS_4pairIKiS2_EEEEENS_10unique_ptrINS_11__tree_nodeIS3_PvEENS_22__tree_node_destructorINS8_ISK_EEEEEEDpOT_, symObjAddr: 0x75AC, symBinAddr: 0x100009F54, symSize: 0x118 }
  - { offsetInCU: 0x19235, offset: 0x19235, size: 0x8, addend: 0x0, symName: __ZNSt3__16__treeINS_12__value_typeIi4UserEENS_19__map_value_compareIiS3_NS_4lessIiEELb1EEENS_9allocatorIS3_EEE16__insert_node_atEPNS_15__tree_end_nodeIPNS_16__tree_node_baseIPvEEEERSF_SF_, symObjAddr: 0x76C4, symBinAddr: 0x10000A06C, symSize: 0xCC }
  - { offsetInCU: 0x1928A, offset: 0x1928A, size: 0x8, addend: 0x0, symName: __ZNKSt3__110unique_ptrINS_11__tree_nodeINS_12__value_typeIi4UserEEPvEENS_22__tree_node_destructorINS_9allocatorIS6_EEEEE3getB7v160006Ev, symObjAddr: 0x7790, symBinAddr: 0x10000A138, symSize: 0x28 }
  - { offsetInCU: 0x192B0, offset: 0x192B0, size: 0x8, addend: 0x0, symName: __ZNSt3__110unique_ptrINS_11__tree_nodeINS_12__value_typeIi4UserEEPvEENS_22__tree_node_destructorINS_9allocatorIS6_EEEEE7releaseB7v160006Ev, symObjAddr: 0x77B8, symBinAddr: 0x10000A160, symSize: 0x44 }
  - { offsetInCU: 0x192E5, offset: 0x192E5, size: 0x8, addend: 0x0, symName: __ZNSt3__110unique_ptrINS_11__tree_nodeINS_12__value_typeIi4UserEEPvEENS_22__tree_node_destructorINS_9allocatorIS6_EEEEED1B7v160006Ev, symObjAddr: 0x77FC, symBinAddr: 0x10000A1A4, symSize: 0x2C }
  - { offsetInCU: 0x1930F, offset: 0x1930F, size: 0x8, addend: 0x0, symName: __ZNSt3__115__tree_iteratorINS_12__value_typeIi4UserEEPNS_11__tree_nodeIS3_PvEElEC1B7v160006ES7_, symObjAddr: 0x7828, symBinAddr: 0x10000A1D0, symSize: 0x34 }
  - { offsetInCU: 0x19348, offset: 0x19348, size: 0x8, addend: 0x0, symName: __ZNSt3__14pairINS_15__tree_iteratorINS_12__value_typeIi4UserEEPNS_11__tree_nodeIS4_PvEElEEbEC1B7v160006ERKS9_RKb, symObjAddr: 0x785C, symBinAddr: 0x10000A204, symSize: 0x3C }
  - { offsetInCU: 0x1938E, offset: 0x1938E, size: 0x8, addend: 0x0, symName: __ZNKSt3__16__treeINS_12__value_typeIi4UserEENS_19__map_value_compareIiS3_NS_4lessIiEELb1EEENS_9allocatorIS3_EEE10__root_ptrEv, symObjAddr: 0x7898, symBinAddr: 0x10000A240, symSize: 0x24 }
  - { offsetInCU: 0x193B4, offset: 0x193B4, size: 0x8, addend: 0x0, symName: __ZNSt3__16__treeINS_12__value_typeIi4UserEENS_19__map_value_compareIiS3_NS_4lessIiEELb1EEENS_9allocatorIS3_EEE10value_compB7v160006Ev, symObjAddr: 0x78BC, symBinAddr: 0x10000A264, symSize: 0x28 }
  - { offsetInCU: 0x193DA, offset: 0x193DA, size: 0x8, addend: 0x0, symName: __ZNKSt3__119__map_value_compareIiNS_12__value_typeIi4UserEENS_4lessIiEELb1EEclB7v160006ERKiRKS3_, symObjAddr: 0x78E4, symBinAddr: 0x10000A28C, symSize: 0x50 }
  - { offsetInCU: 0x1941E, offset: 0x1941E, size: 0x8, addend: 0x0, symName: __ZNKSt3__119__map_value_compareIiNS_12__value_typeIi4UserEENS_4lessIiEELb1EEclB7v160006ERKS3_RKi, symObjAddr: 0x7934, symBinAddr: 0x10000A2DC, symSize: 0x48 }
  - { offsetInCU: 0x19462, offset: 0x19462, size: 0x8, addend: 0x0, symName: __ZNSt3__117__compressed_pairImNS_19__map_value_compareIiNS_12__value_typeIi4UserEENS_4lessIiEELb1EEEE6secondB7v160006Ev, symObjAddr: 0x797C, symBinAddr: 0x10000A324, symSize: 0x24 }
  - { offsetInCU: 0x19488, offset: 0x19488, size: 0x8, addend: 0x0, symName: __ZNSt3__122__compressed_pair_elemINS_19__map_value_compareIiNS_12__value_typeIi4UserEENS_4lessIiEELb1EEELi1ELb1EE5__getB7v160006Ev, symObjAddr: 0x79A0, symBinAddr: 0x10000A348, symSize: 0x14 }
  - { offsetInCU: 0x194AE, offset: 0x194AE, size: 0x8, addend: 0x0, symName: __ZNKSt3__14lessIiEclB7v160006ERKiS3_, symObjAddr: 0x79B4, symBinAddr: 0x10000A35C, symSize: 0x34 }
  - { offsetInCU: 0x194F2, offset: 0x194F2, size: 0x8, addend: 0x0, symName: __ZNKSt3__112__value_typeIi4UserE11__get_valueB7v160006Ev, symObjAddr: 0x79E8, symBinAddr: 0x10000A390, symSize: 0x14 }
  - { offsetInCU: 0x19518, offset: 0x19518, size: 0x8, addend: 0x0, symName: __ZNSt3__116allocator_traitsINS_9allocatorINS_11__tree_nodeINS_12__value_typeIi4UserEEPvEEEEE8allocateB7v160006ERS8_m, symObjAddr: 0x79FC, symBinAddr: 0x10000A3A4, symSize: 0x2C }
  - { offsetInCU: 0x1954B, offset: 0x1954B, size: 0x8, addend: 0x0, symName: __ZNSt3__122__tree_node_destructorINS_9allocatorINS_11__tree_nodeINS_12__value_typeIi4UserEEPvEEEEEC1B7v160006ERS8_b, symObjAddr: 0x7A28, symBinAddr: 0x10000A3D0, symSize: 0x48 }
  - { offsetInCU: 0x19598, offset: 0x19598, size: 0x8, addend: 0x0, symName: __ZNSt3__110unique_ptrINS_11__tree_nodeINS_12__value_typeIi4UserEEPvEENS_22__tree_node_destructorINS_9allocatorIS6_EEEEEC1B7v160006ILb1EvEEPS6_NS_16__dependent_typeINS_27__unique_ptr_deleter_sfinaeISA_EEXT_EE20__good_rval_ref_typeE, symObjAddr: 0x7A70, symBinAddr: 0x10000A418, symSize: 0x3C }
  - { offsetInCU: 0x195E9, offset: 0x195E9, size: 0x8, addend: 0x0, symName: __ZNSt3__116allocator_traitsINS_9allocatorINS_11__tree_nodeINS_12__value_typeIi4UserEEPvEEEEE9constructB7v160006INS_4pairIKiS4_EEJRKSD_EvEEvRS8_PT_DpOT0_, symObjAddr: 0x7AAC, symBinAddr: 0x10000A454, symSize: 0x34 }
  - { offsetInCU: 0x19640, offset: 0x19640, size: 0x8, addend: 0x0, symName: __ZNKSt3__110unique_ptrINS_11__tree_nodeINS_12__value_typeIi4UserEEPvEENS_22__tree_node_destructorINS_9allocatorIS6_EEEEEptB7v160006Ev, symObjAddr: 0x7AE0, symBinAddr: 0x10000A488, symSize: 0x28 }
  - { offsetInCU: 0x19666, offset: 0x19666, size: 0x8, addend: 0x0, symName: __ZNSt3__110unique_ptrINS_11__tree_nodeINS_12__value_typeIi4UserEEPvEENS_22__tree_node_destructorINS_9allocatorIS6_EEEEE11get_deleterB7v160006Ev, symObjAddr: 0x7B08, symBinAddr: 0x10000A4B0, symSize: 0x24 }
  - { offsetInCU: 0x1968C, offset: 0x1968C, size: 0x8, addend: 0x0, symName: __ZNSt3__19allocatorINS_11__tree_nodeINS_12__value_typeIi4UserEEPvEEE8allocateB7v160006Em, symObjAddr: 0x7B2C, symBinAddr: 0x10000A4D4, symSize: 0x8C }
  - { offsetInCU: 0x196CA, offset: 0x196CA, size: 0x8, addend: 0x0, symName: __ZNSt3__116allocator_traitsINS_9allocatorINS_11__tree_nodeINS_12__value_typeIi4UserEEPvEEEEE8max_sizeB7v160006IS8_vEEmRKS8_, symObjAddr: 0x7BB8, symBinAddr: 0x10000A560, symSize: 0x24 }
  - { offsetInCU: 0x196F8, offset: 0x196F8, size: 0x8, addend: 0x0, symName: __ZNKSt3__19allocatorINS_11__tree_nodeINS_12__value_typeIi4UserEEPvEEE8max_sizeB7v160006Ev, symObjAddr: 0x7BDC, symBinAddr: 0x10000A584, symSize: 0x20 }
  - { offsetInCU: 0x1971E, offset: 0x1971E, size: 0x8, addend: 0x0, symName: __ZNSt3__122__tree_node_destructorINS_9allocatorINS_11__tree_nodeINS_12__value_typeIi4UserEEPvEEEEEC2B7v160006ERS8_b, symObjAddr: 0x7BFC, symBinAddr: 0x10000A5A4, symSize: 0x38 }
  - { offsetInCU: 0x19766, offset: 0x19766, size: 0x8, addend: 0x0, symName: __ZNSt3__110unique_ptrINS_11__tree_nodeINS_12__value_typeIi4UserEEPvEENS_22__tree_node_destructorINS_9allocatorIS6_EEEEEC2B7v160006ILb1EvEEPS6_NS_16__dependent_typeINS_27__unique_ptr_deleter_sfinaeISA_EEXT_EE20__good_rval_ref_typeE, symObjAddr: 0x7C34, symBinAddr: 0x10000A5DC, symSize: 0x5C }
  - { offsetInCU: 0x197B7, offset: 0x197B7, size: 0x8, addend: 0x0, symName: __ZNSt3__117__compressed_pairIPNS_11__tree_nodeINS_12__value_typeIi4UserEEPvEENS_22__tree_node_destructorINS_9allocatorIS6_EEEEEC1B7v160006IRS7_SB_EEOT_OT0_, symObjAddr: 0x7C90, symBinAddr: 0x10000A638, symSize: 0x3C }
  - { offsetInCU: 0x1980F, offset: 0x1980F, size: 0x8, addend: 0x0, symName: __ZNSt3__117__compressed_pairIPNS_11__tree_nodeINS_12__value_typeIi4UserEEPvEENS_22__tree_node_destructorINS_9allocatorIS6_EEEEEC2B7v160006IRS7_SB_EEOT_OT0_, symObjAddr: 0x7CCC, symBinAddr: 0x10000A674, symSize: 0x48 }
  - { offsetInCU: 0x19867, offset: 0x19867, size: 0x8, addend: 0x0, symName: __ZNSt3__122__compressed_pair_elemIPNS_11__tree_nodeINS_12__value_typeIi4UserEEPvEELi0ELb0EEC2B7v160006IRS7_vEEOT_, symObjAddr: 0x7D14, symBinAddr: 0x10000A6BC, symSize: 0x24 }
  - { offsetInCU: 0x198A9, offset: 0x198A9, size: 0x8, addend: 0x0, symName: __ZNSt3__122__compressed_pair_elemINS_22__tree_node_destructorINS_9allocatorINS_11__tree_nodeINS_12__value_typeIi4UserEEPvEEEEEELi1ELb0EEC2B7v160006ISA_vEEOT_, symObjAddr: 0x7D38, symBinAddr: 0x10000A6E0, symSize: 0x24 }
  - { offsetInCU: 0x198EB, offset: 0x198EB, size: 0x8, addend: 0x0, symName: __ZNSt3__19allocatorINS_11__tree_nodeINS_12__value_typeIi4UserEEPvEEE9constructB7v160006INS_4pairIKiS3_EEJRKSB_EEEvPT_DpOT0_, symObjAddr: 0x7D5C, symBinAddr: 0x10000A704, symSize: 0x30 }
  - { offsetInCU: 0x19941, offset: 0x19941, size: 0x8, addend: 0x0, symName: __ZNSt3__14pairIKi4UserEC1ERKS3_, symObjAddr: 0x7D8C, symBinAddr: 0x10000A734, symSize: 0x34 }
  - { offsetInCU: 0x19976, offset: 0x19976, size: 0x8, addend: 0x0, symName: __ZNSt3__14pairIKi4UserEC2ERKS3_, symObjAddr: 0x7DC0, symBinAddr: 0x10000A768, symSize: 0x48 }
  - { offsetInCU: 0x199AB, offset: 0x199AB, size: 0x8, addend: 0x0, symName: __ZNKSt3__117__compressed_pairIPNS_11__tree_nodeINS_12__value_typeIi4UserEEPvEENS_22__tree_node_destructorINS_9allocatorIS6_EEEEE5firstB7v160006Ev, symObjAddr: 0x7E08, symBinAddr: 0x10000A7B0, symSize: 0x24 }
  - { offsetInCU: 0x199D1, offset: 0x199D1, size: 0x8, addend: 0x0, symName: __ZNKSt3__122__compressed_pair_elemIPNS_11__tree_nodeINS_12__value_typeIi4UserEEPvEELi0ELb0EE5__getB7v160006Ev, symObjAddr: 0x7E2C, symBinAddr: 0x10000A7D4, symSize: 0x14 }
  - { offsetInCU: 0x199F7, offset: 0x199F7, size: 0x8, addend: 0x0, symName: __ZNSt3__117__compressed_pairIPNS_11__tree_nodeINS_12__value_typeIi4UserEEPvEENS_22__tree_node_destructorINS_9allocatorIS6_EEEEE6secondB7v160006Ev, symObjAddr: 0x7E40, symBinAddr: 0x10000A7E8, symSize: 0x28 }
  - { offsetInCU: 0x19A1D, offset: 0x19A1D, size: 0x8, addend: 0x0, symName: __ZNSt3__122__compressed_pair_elemINS_22__tree_node_destructorINS_9allocatorINS_11__tree_nodeINS_12__value_typeIi4UserEEPvEEEEEELi1ELb0EE5__getB7v160006Ev, symObjAddr: 0x7E68, symBinAddr: 0x10000A810, symSize: 0x14 }
  - { offsetInCU: 0x19A43, offset: 0x19A43, size: 0x8, addend: 0x0, symName: __ZNSt3__16__treeINS_12__value_typeIi4UserEENS_19__map_value_compareIiS3_NS_4lessIiEELb1EEENS_9allocatorIS3_EEE4sizeB7v160006Ev, symObjAddr: 0x81BC, symBinAddr: 0x10000AB64, symSize: 0x28 }
  - { offsetInCU: 0x19A69, offset: 0x19A69, size: 0x8, addend: 0x0, symName: __ZNKSt3__116__tree_node_baseIPvE15__parent_unsafeB7v160006Ev, symObjAddr: 0x81E4, symBinAddr: 0x10000AB8C, symSize: 0x18 }
  - { offsetInCU: 0x19A8F, offset: 0x19A8F, size: 0x8, addend: 0x0, symName: __ZNSt3__116__tree_node_baseIPvE12__set_parentB7v160006EPS2_, symObjAddr: 0x83E0, symBinAddr: 0x10000AD88, symSize: 0x20 }
  - { offsetInCU: 0x19AC4, offset: 0x19AC4, size: 0x8, addend: 0x0, symName: __ZNSt3__117__compressed_pairImNS_19__map_value_compareIiNS_12__value_typeIi4UserEENS_4lessIiEELb1EEEE5firstB7v160006Ev, symObjAddr: 0x8400, symBinAddr: 0x10000ADA8, symSize: 0x24 }
  - { offsetInCU: 0x19AEA, offset: 0x19AEA, size: 0x8, addend: 0x0, symName: __ZNSt3__122__compressed_pair_elemImLi0ELb0EE5__getB7v160006Ev, symObjAddr: 0x8424, symBinAddr: 0x10000ADCC, symSize: 0x14 }
  - { offsetInCU: 0x19B10, offset: 0x19B10, size: 0x8, addend: 0x0, symName: __ZNSt3__117__compressed_pairIPNS_11__tree_nodeINS_12__value_typeIi4UserEEPvEENS_22__tree_node_destructorINS_9allocatorIS6_EEEEE5firstB7v160006Ev, symObjAddr: 0x8438, symBinAddr: 0x10000ADE0, symSize: 0x24 }
  - { offsetInCU: 0x19B36, offset: 0x19B36, size: 0x8, addend: 0x0, symName: __ZNSt3__122__compressed_pair_elemIPNS_11__tree_nodeINS_12__value_typeIi4UserEEPvEELi0ELb0EE5__getB7v160006Ev, symObjAddr: 0x845C, symBinAddr: 0x10000AE04, symSize: 0x14 }
  - { offsetInCU: 0x19B5C, offset: 0x19B5C, size: 0x8, addend: 0x0, symName: __ZNSt3__110unique_ptrINS_11__tree_nodeINS_12__value_typeIi4UserEEPvEENS_22__tree_node_destructorINS_9allocatorIS6_EEEEED2B7v160006Ev, symObjAddr: 0x8470, symBinAddr: 0x10000AE18, symSize: 0x30 }
  - { offsetInCU: 0x19B86, offset: 0x19B86, size: 0x8, addend: 0x0, symName: __ZNSt3__110unique_ptrINS_11__tree_nodeINS_12__value_typeIi4UserEEPvEENS_22__tree_node_destructorINS_9allocatorIS6_EEEEE5resetB7v160006EPS6_, symObjAddr: 0x84A0, symBinAddr: 0x10000AE48, symSize: 0x78 }
  - { offsetInCU: 0x19BCA, offset: 0x19BCA, size: 0x8, addend: 0x0, symName: __ZNSt3__122__tree_node_destructorINS_9allocatorINS_11__tree_nodeINS_12__value_typeIi4UserEEPvEEEEEclB7v160006EPS7_, symObjAddr: 0x8518, symBinAddr: 0x10000AEC0, symSize: 0xAC }
  - { offsetInCU: 0x19BFF, offset: 0x19BFF, size: 0x8, addend: 0x0, symName: __ZNSt3__115__tree_iteratorINS_12__value_typeIi4UserEEPNS_11__tree_nodeIS3_PvEElEC2B7v160006ES7_, symObjAddr: 0x85C4, symBinAddr: 0x10000AF6C, symSize: 0x20 }
  - { offsetInCU: 0x19C38, offset: 0x19C38, size: 0x8, addend: 0x0, symName: __ZNSt3__14pairINS_15__tree_iteratorINS_12__value_typeIi4UserEEPNS_11__tree_nodeIS4_PvEElEEbEC2B7v160006ERKS9_RKb, symObjAddr: 0x85E4, symBinAddr: 0x10000AF8C, symSize: 0x38 }
  - { offsetInCU: 0x19C7E, offset: 0x19C7E, size: 0x8, addend: 0x0, symName: __ZNSt3__14pairINS_14__map_iteratorINS_15__tree_iteratorINS_12__value_typeIi4UserEEPNS_11__tree_nodeIS5_PvEElEEEEbEC2B7v160006ISA_bEERKNS0_IT_T0_EE, symObjAddr: 0x861C, symBinAddr: 0x10000AFC4, symSize: 0x50 }
  - { offsetInCU: 0x19CC8, offset: 0x19CC8, size: 0x8, addend: 0x0, symName: __ZNSt3__114__map_iteratorINS_15__tree_iteratorINS_12__value_typeIi4UserEEPNS_11__tree_nodeIS4_PvEElEEEC1B7v160006ES9_, symObjAddr: 0x866C, symBinAddr: 0x10000B014, symSize: 0x34 }
  - { offsetInCU: 0x19D01, offset: 0x19D01, size: 0x8, addend: 0x0, symName: __ZNSt3__114__map_iteratorINS_15__tree_iteratorINS_12__value_typeIi4UserEEPNS_11__tree_nodeIS4_PvEElEEEC2B7v160006ES9_, symObjAddr: 0x86A0, symBinAddr: 0x10000B048, symSize: 0x20 }
  - { offsetInCU: 0x19D3A, offset: 0x19D3A, size: 0x8, addend: 0x0, symName: __ZNSt3__14pairIKi4UserEC2B7v160006IiS2_EERKNS0_IT_T0_EE, symObjAddr: 0x86C0, symBinAddr: 0x10000B068, symSize: 0x48 }
  - { offsetInCU: 0x19D84, offset: 0x19D84, size: 0x8, addend: 0x0, symName: __ZNSt3__13mapIi4UserNS_4lessIiEENS_9allocatorINS_4pairIKiS1_EEEEE25__construct_node_with_keyERS6_, symObjAddr: 0x8708, symBinAddr: 0x10000B0B0, symSize: 0x144 }
  - { offsetInCU: 0x19DDA, offset: 0x19DDA, size: 0x8, addend: 0x0, symName: __ZNKSt3__110unique_ptrINS_11__tree_nodeINS_12__value_typeIi4UserEEPvEENS_21__map_node_destructorINS_9allocatorIS6_EEEEE3getB7v160006Ev, symObjAddr: 0x884C, symBinAddr: 0x10000B1F4, symSize: 0x28 }
  - { offsetInCU: 0x19E00, offset: 0x19E00, size: 0x8, addend: 0x0, symName: __ZNSt3__110unique_ptrINS_11__tree_nodeINS_12__value_typeIi4UserEEPvEENS_21__map_node_destructorINS_9allocatorIS6_EEEEE7releaseB7v160006Ev, symObjAddr: 0x8874, symBinAddr: 0x10000B21C, symSize: 0x44 }
  - { offsetInCU: 0x19E35, offset: 0x19E35, size: 0x8, addend: 0x0, symName: __ZNSt3__110unique_ptrINS_11__tree_nodeINS_12__value_typeIi4UserEEPvEENS_21__map_node_destructorINS_9allocatorIS6_EEEEED1B7v160006Ev, symObjAddr: 0x88B8, symBinAddr: 0x10000B260, symSize: 0x2C }
  - { offsetInCU: 0x19E5F, offset: 0x19E5F, size: 0x8, addend: 0x0, symName: __ZNSt3__121__map_node_destructorINS_9allocatorINS_11__tree_nodeINS_12__value_typeIi4UserEEPvEEEEEC1B7v160006ERS8_, symObjAddr: 0x88E4, symBinAddr: 0x10000B28C, symSize: 0x34 }
  - { offsetInCU: 0x19E9D, offset: 0x19E9D, size: 0x8, addend: 0x0, symName: __ZNSt3__110unique_ptrINS_11__tree_nodeINS_12__value_typeIi4UserEEPvEENS_21__map_node_destructorINS_9allocatorIS6_EEEEEC1B7v160006ILb1EvEEPS6_NS_16__dependent_typeINS_27__unique_ptr_deleter_sfinaeISA_EEXT_EE20__good_rval_ref_typeE, symObjAddr: 0x8918, symBinAddr: 0x10000B2C0, symSize: 0x3C }
  - { offsetInCU: 0x19EEE, offset: 0x19EEE, size: 0x8, addend: 0x0, symName: __ZNSt3__116allocator_traitsINS_9allocatorINS_11__tree_nodeINS_12__value_typeIi4UserEEPvEEEEE9constructB7v160006IKiJRSB_EvEEvRS8_PT_DpOT0_, symObjAddr: 0x8954, symBinAddr: 0x10000B2FC, symSize: 0x34 }
  - { offsetInCU: 0x19F45, offset: 0x19F45, size: 0x8, addend: 0x0, symName: __ZNKSt3__110unique_ptrINS_11__tree_nodeINS_12__value_typeIi4UserEEPvEENS_21__map_node_destructorINS_9allocatorIS6_EEEEEptB7v160006Ev, symObjAddr: 0x8988, symBinAddr: 0x10000B330, symSize: 0x28 }
  - { offsetInCU: 0x19F6B, offset: 0x19F6B, size: 0x8, addend: 0x0, symName: __ZNSt3__110unique_ptrINS_11__tree_nodeINS_12__value_typeIi4UserEEPvEENS_21__map_node_destructorINS_9allocatorIS6_EEEEE11get_deleterB7v160006Ev, symObjAddr: 0x89B0, symBinAddr: 0x10000B358, symSize: 0x24 }
  - { offsetInCU: 0x19F91, offset: 0x19F91, size: 0x8, addend: 0x0, symName: __ZNSt3__116allocator_traitsINS_9allocatorINS_11__tree_nodeINS_12__value_typeIi4UserEEPvEEEEE9constructB7v160006IS4_JEvEEvRS8_PT_DpOT0_, symObjAddr: 0x89D4, symBinAddr: 0x10000B37C, symSize: 0x2C }
  - { offsetInCU: 0x19FD3, offset: 0x19FD3, size: 0x8, addend: 0x0, symName: __ZNSt3__121__map_node_destructorINS_9allocatorINS_11__tree_nodeINS_12__value_typeIi4UserEEPvEEEEEC2B7v160006ERS8_, symObjAddr: 0x8A00, symBinAddr: 0x10000B3A8, symSize: 0x28 }
  - { offsetInCU: 0x1A00C, offset: 0x1A00C, size: 0x8, addend: 0x0, symName: __ZNSt3__110unique_ptrINS_11__tree_nodeINS_12__value_typeIi4UserEEPvEENS_21__map_node_destructorINS_9allocatorIS6_EEEEEC2B7v160006ILb1EvEEPS6_NS_16__dependent_typeINS_27__unique_ptr_deleter_sfinaeISA_EEXT_EE20__good_rval_ref_typeE, symObjAddr: 0x8A28, symBinAddr: 0x10000B3D0, symSize: 0x5C }
  - { offsetInCU: 0x1A05D, offset: 0x1A05D, size: 0x8, addend: 0x0, symName: __ZNSt3__117__compressed_pairIPNS_11__tree_nodeINS_12__value_typeIi4UserEEPvEENS_21__map_node_destructorINS_9allocatorIS6_EEEEEC1B7v160006IRS7_SB_EEOT_OT0_, symObjAddr: 0x8A84, symBinAddr: 0x10000B42C, symSize: 0x3C }
  - { offsetInCU: 0x1A0B5, offset: 0x1A0B5, size: 0x8, addend: 0x0, symName: __ZNSt3__117__compressed_pairIPNS_11__tree_nodeINS_12__value_typeIi4UserEEPvEENS_21__map_node_destructorINS_9allocatorIS6_EEEEEC2B7v160006IRS7_SB_EEOT_OT0_, symObjAddr: 0x8AC0, symBinAddr: 0x10000B468, symSize: 0x48 }
  - { offsetInCU: 0x1A10D, offset: 0x1A10D, size: 0x8, addend: 0x0, symName: __ZNSt3__122__compressed_pair_elemINS_21__map_node_destructorINS_9allocatorINS_11__tree_nodeINS_12__value_typeIi4UserEEPvEEEEEELi1ELb0EEC2B7v160006ISA_vEEOT_, symObjAddr: 0x8B08, symBinAddr: 0x10000B4B0, symSize: 0x24 }
  - { offsetInCU: 0x1A14F, offset: 0x1A14F, size: 0x8, addend: 0x0, symName: __ZNSt3__19allocatorINS_11__tree_nodeINS_12__value_typeIi4UserEEPvEEE9constructB7v160006IKiJRS9_EEEvPT_DpOT0_, symObjAddr: 0x8B2C, symBinAddr: 0x10000B4D4, symSize: 0x28 }
  - { offsetInCU: 0x1A1A5, offset: 0x1A1A5, size: 0x8, addend: 0x0, symName: __ZNKSt3__117__compressed_pairIPNS_11__tree_nodeINS_12__value_typeIi4UserEEPvEENS_21__map_node_destructorINS_9allocatorIS6_EEEEE5firstB7v160006Ev, symObjAddr: 0x8B54, symBinAddr: 0x10000B4FC, symSize: 0x24 }
  - { offsetInCU: 0x1A1CB, offset: 0x1A1CB, size: 0x8, addend: 0x0, symName: __ZNSt3__117__compressed_pairIPNS_11__tree_nodeINS_12__value_typeIi4UserEEPvEENS_21__map_node_destructorINS_9allocatorIS6_EEEEE6secondB7v160006Ev, symObjAddr: 0x8B78, symBinAddr: 0x10000B520, symSize: 0x28 }
  - { offsetInCU: 0x1A1F1, offset: 0x1A1F1, size: 0x8, addend: 0x0, symName: __ZNSt3__122__compressed_pair_elemINS_21__map_node_destructorINS_9allocatorINS_11__tree_nodeINS_12__value_typeIi4UserEEPvEEEEEELi1ELb0EE5__getB7v160006Ev, symObjAddr: 0x8BA0, symBinAddr: 0x10000B548, symSize: 0x14 }
  - { offsetInCU: 0x1A217, offset: 0x1A217, size: 0x8, addend: 0x0, symName: __ZNSt3__19allocatorINS_11__tree_nodeINS_12__value_typeIi4UserEEPvEEE9constructB7v160006IS3_JEEEvPT_DpOT0_, symObjAddr: 0x8BB4, symBinAddr: 0x10000B55C, symSize: 0x28 }
  - { offsetInCU: 0x1A259, offset: 0x1A259, size: 0x8, addend: 0x0, symName: __ZNSt3__117__compressed_pairIPNS_11__tree_nodeINS_12__value_typeIi4UserEEPvEENS_21__map_node_destructorINS_9allocatorIS6_EEEEE5firstB7v160006Ev, symObjAddr: 0x8BDC, symBinAddr: 0x10000B584, symSize: 0x24 }
  - { offsetInCU: 0x1A27F, offset: 0x1A27F, size: 0x8, addend: 0x0, symName: __ZNSt3__110unique_ptrINS_11__tree_nodeINS_12__value_typeIi4UserEEPvEENS_21__map_node_destructorINS_9allocatorIS6_EEEEED2B7v160006Ev, symObjAddr: 0x8C00, symBinAddr: 0x10000B5A8, symSize: 0x30 }
  - { offsetInCU: 0x1A2A9, offset: 0x1A2A9, size: 0x8, addend: 0x0, symName: __ZNSt3__110unique_ptrINS_11__tree_nodeINS_12__value_typeIi4UserEEPvEENS_21__map_node_destructorINS_9allocatorIS6_EEEEE5resetB7v160006EPS6_, symObjAddr: 0x8C30, symBinAddr: 0x10000B5D8, symSize: 0x78 }
  - { offsetInCU: 0x1A2ED, offset: 0x1A2ED, size: 0x8, addend: 0x0, symName: __ZNSt3__121__map_node_destructorINS_9allocatorINS_11__tree_nodeINS_12__value_typeIi4UserEEPvEEEEEclB7v160006EPS7_, symObjAddr: 0x8CA8, symBinAddr: 0x10000B650, symSize: 0xE4 }
  - { offsetInCU: 0x1A322, offset: 0x1A322, size: 0x8, addend: 0x0, symName: __ZNSt3__116allocator_traitsINS_9allocatorINS_11__tree_nodeINS_12__value_typeIi4UserEEPvEEEEE7destroyB7v160006IS4_vvEEvRS8_PT_, symObjAddr: 0x8D8C, symBinAddr: 0x10000B734, symSize: 0x28 }
  - { offsetInCU: 0x1A35C, offset: 0x1A35C, size: 0x8, addend: 0x0, symName: __ZNSt3__116allocator_traitsINS_9allocatorINS_11__tree_nodeINS_12__value_typeIi4UserEEPvEEEEE7destroyB7v160006IKivvEEvRS8_PT_, symObjAddr: 0x8DB4, symBinAddr: 0x10000B75C, symSize: 0x14 }
  - { offsetInCU: 0x1A396, offset: 0x1A396, size: 0x8, addend: 0x0, symName: __ZNSt3__116allocator_traitsINS_9allocatorIcEEE37select_on_container_copy_constructionB7v160006IS2_vvEES2_RKS2_, symObjAddr: 0x8DC8, symBinAddr: 0x10000B770, symSize: 0x10 }
  - { offsetInCU: 0x1A3C5, offset: 0x1A3C5, size: 0x8, addend: 0x0, symName: __ZNKSt3__112basic_stringIcNS_11char_traitsIcEENS_9allocatorIcEEE13get_allocatorB7v160006Ev, symObjAddr: 0x8DD8, symBinAddr: 0x10000B780, symSize: 0x24 }
  - { offsetInCU: 0x1A3EB, offset: 0x1A3EB, size: 0x8, addend: 0x0, symName: __ZNSt3__112basic_stringIcNS_11char_traitsIcEENS_9allocatorIcEEEC1B7v160006ENS_24__uninitialized_size_tagEmRKS4_, symObjAddr: 0x8DFC, symBinAddr: 0x10000B7A4, symSize: 0x3C }
  - { offsetInCU: 0x1A43E, offset: 0x1A43E, size: 0x8, addend: 0x0, symName: __ZNSt3__112basic_stringIcNS_11char_traitsIcEENS_9allocatorIcEEE13__get_pointerB7v160006Ev, symObjAddr: 0x8E4C, symBinAddr: 0x10000B7F4, symSize: 0x54 }
  - { offsetInCU: 0x1A464, offset: 0x1A464, size: 0x8, addend: 0x0, symName: __ZNSt3__111char_traitsIcE4copyEPcPKcm, symObjAddr: 0x8EA0, symBinAddr: 0x10000B848, symSize: 0x80 }
  - { offsetInCU: 0x1A4A3, offset: 0x1A4A3, size: 0x8, addend: 0x0, symName: __ZNSt3__111char_traitsIcE6assignEPcmc, symObjAddr: 0x8F20, symBinAddr: 0x10000B8C8, symSize: 0x58 }
  - { offsetInCU: 0x1A4E2, offset: 0x1A4E2, size: 0x8, addend: 0x0, symName: __ZNKSt3__112basic_stringIcNS_11char_traitsIcEENS_9allocatorIcEEE7__allocB7v160006Ev, symObjAddr: 0x8F78, symBinAddr: 0x10000B920, symSize: 0x24 }
  - { offsetInCU: 0x1A508, offset: 0x1A508, size: 0x8, addend: 0x0, symName: __ZNKSt3__117__compressed_pairINS_12basic_stringIcNS_11char_traitsIcEENS_9allocatorIcEEE5__repES5_E6secondB7v160006Ev, symObjAddr: 0x8F9C, symBinAddr: 0x10000B944, symSize: 0x24 }
  - { offsetInCU: 0x1A52E, offset: 0x1A52E, size: 0x8, addend: 0x0, symName: __ZNKSt3__122__compressed_pair_elemINS_9allocatorIcEELi1ELb1EE5__getB7v160006Ev, symObjAddr: 0x8FC0, symBinAddr: 0x10000B968, symSize: 0x14 }
  - { offsetInCU: 0x1A554, offset: 0x1A554, size: 0x8, addend: 0x0, symName: __ZNSt3__112basic_stringIcNS_11char_traitsIcEENS_9allocatorIcEEEC2B7v160006ENS_24__uninitialized_size_tagEmRKS4_, symObjAddr: 0x8FD4, symBinAddr: 0x10000B97C, symSize: 0x118 }
  - { offsetInCU: 0x1A5D3, offset: 0x1A5D3, size: 0x8, addend: 0x0, symName: __ZNSt3__117__compressed_pairINS_12basic_stringIcNS_11char_traitsIcEENS_9allocatorIcEEE5__repES5_EC1B7v160006INS_18__default_init_tagERKS5_EEOT_OT0_, symObjAddr: 0x90EC, symBinAddr: 0x10000BA94, symSize: 0x3C }
  - { offsetInCU: 0x1A62B, offset: 0x1A62B, size: 0x8, addend: 0x0, symName: __ZNKSt3__112basic_stringIcNS_11char_traitsIcEENS_9allocatorIcEEE8max_sizeB7v160006Ev, symObjAddr: 0x9128, symBinAddr: 0x10000BAD0, symSize: 0xAC }
  - { offsetInCU: 0x1A67D, offset: 0x1A67D, size: 0x8, addend: 0x0, symName: __ZNKSt3__112basic_stringIcNS_11char_traitsIcEENS_9allocatorIcEEE20__throw_length_errorB7v160006Ev, symObjAddr: 0x91D4, symBinAddr: 0x10000BB7C, symSize: 0x1C }
  - { offsetInCU: 0x1A6A3, offset: 0x1A6A3, size: 0x8, addend: 0x0, symName: __ZNSt3__112basic_stringIcNS_11char_traitsIcEENS_9allocatorIcEEE13__fits_in_ssoB7v160006Em, symObjAddr: 0x91F0, symBinAddr: 0x10000BB98, symSize: 0x4C }
  - { offsetInCU: 0x1A6C7, offset: 0x1A6C7, size: 0x8, addend: 0x0, symName: __ZNSt3__112basic_stringIcNS_11char_traitsIcEENS_9allocatorIcEEE16__set_short_sizeB7v160006Em, symObjAddr: 0x923C, symBinAddr: 0x10000BBE4, symSize: 0x78 }
  - { offsetInCU: 0x1A6FC, offset: 0x1A6FC, size: 0x8, addend: 0x0, symName: __ZNSt3__117__compressed_pairINS_12basic_stringIcNS_11char_traitsIcEENS_9allocatorIcEEE5__repES5_EC2B7v160006INS_18__default_init_tagERKS5_EEOT_OT0_, symObjAddr: 0x92B4, symBinAddr: 0x10000BC5C, symSize: 0x40 }
  - { offsetInCU: 0x1A754, offset: 0x1A754, size: 0x8, addend: 0x0, symName: __ZNSt3__122__compressed_pair_elemINS_9allocatorIcEELi1ELb1EEC2B7v160006IRKS2_vEEOT_, symObjAddr: 0x92F4, symBinAddr: 0x10000BC9C, symSize: 0x18 }
  - { offsetInCU: 0x1A796, offset: 0x1A796, size: 0x8, addend: 0x0, symName: __ZNSt3__114numeric_limitsImE3maxB7v160006Ev, symObjAddr: 0x930C, symBinAddr: 0x10000BCB4, symSize: 0x14 }
  - { offsetInCU: 0x1A7AA, offset: 0x1A7AA, size: 0x8, addend: 0x0, symName: __ZNSt3__123__libcpp_numeric_limitsImLb1EE3maxB7v160006Ev, symObjAddr: 0x9320, symBinAddr: 0x10000BCC8, symSize: 0x8 }
  - { offsetInCU: 0x1A7BE, offset: 0x1A7BE, size: 0x8, addend: 0x0, symName: __ZNSt3__112basic_stringIcNS_11char_traitsIcEENS_9allocatorIcEEE18__get_long_pointerB7v160006Ev, symObjAddr: 0x9328, symBinAddr: 0x10000BCD0, symSize: 0x28 }
  - { offsetInCU: 0x1A7E4, offset: 0x1A7E4, size: 0x8, addend: 0x0, symName: __ZNSt3__112basic_stringIcNS_11char_traitsIcEENS_9allocatorIcEEE19__get_short_pointerB7v160006Ev, symObjAddr: 0x9350, symBinAddr: 0x10000BCF8, symSize: 0x28 }
  - { offsetInCU: 0x1A80A, offset: 0x1A80A, size: 0x8, addend: 0x0, symName: __ZNSt3__114pointer_traitsIPcE10pointer_toB7v160006ERc, symObjAddr: 0x9378, symBinAddr: 0x10000BD20, symSize: 0x14 }
  - { offsetInCU: 0x1A864, offset: 0x1A864, size: 0x8, addend: 0x0, symName: __ZNKSt3__114__copy_trivialclB7v160006IKccLi0EEENS_4pairIPT_PT0_EES5_S5_S7_, symObjAddr: 0x95BC, symBinAddr: 0x10000BF64, symSize: 0x48 }
  - { offsetInCU: 0x1A8E5, offset: 0x1A8E5, size: 0x8, addend: 0x0, symName: __ZNSt3__14pairIPKcS2_EC1B7v160006ERKS2_S5_, symObjAddr: 0x9738, symBinAddr: 0x10000C0E0, symSize: 0x3C }
  - { offsetInCU: 0x1A92B, offset: 0x1A92B, size: 0x8, addend: 0x0, symName: __ZNSt3__14pairIPKcS2_EC2B7v160006ERKS2_S5_, symObjAddr: 0x9774, symBinAddr: 0x10000C11C, symSize: 0x34 }
  - { offsetInCU: 0x1A971, offset: 0x1A971, size: 0x8, addend: 0x0, symName: __ZNSt3__118__unwrap_iter_implIPKcLb1EE8__unwrapB7v160006ES2_, symObjAddr: 0x97A8, symBinAddr: 0x10000C150, symSize: 0x24 }
  - { offsetInCU: 0x1A994, offset: 0x1A994, size: 0x8, addend: 0x0, symName: __ZNSt3__14pairIPKcPcEC1B7v160006ERKS2_RKS3_, symObjAddr: 0x9880, symBinAddr: 0x10000C228, symSize: 0x3C }
  - { offsetInCU: 0x1A9DA, offset: 0x1A9DA, size: 0x8, addend: 0x0, symName: __ZNSt3__14pairIPKcPcEC2B7v160006ERKS2_RKS3_, symObjAddr: 0x98BC, symBinAddr: 0x10000C264, symSize: 0x34 }
  - { offsetInCU: 0x1AA20, offset: 0x1AA20, size: 0x8, addend: 0x0, symName: __ZNSt3__118__unwrap_iter_implIPcLb1EE8__unwrapB7v160006ES1_, symObjAddr: 0x98F0, symBinAddr: 0x10000C298, symSize: 0x24 }
  - { offsetInCU: 0x1AA43, offset: 0x1AA43, size: 0x8, addend: 0x0, symName: __ZNSt3__118__unwrap_iter_implIPKcLb1EE8__rewrapB7v160006ES2_S2_, symObjAddr: 0x9964, symBinAddr: 0x10000C30C, symSize: 0x48 }
  - { offsetInCU: 0x1AA74, offset: 0x1AA74, size: 0x8, addend: 0x0, symName: __ZNSt3__118__unwrap_iter_implIPcLb1EE8__rewrapB7v160006ES1_S1_, symObjAddr: 0x99AC, symBinAddr: 0x10000C354, symSize: 0x48 }
  - { offsetInCU: 0x1AAA5, offset: 0x1AAA5, size: 0x8, addend: 0x0, symName: __ZNKSt3__112basic_stringIcNS_11char_traitsIcEENS_9allocatorIcEEE15__get_long_sizeB7v160006Ev, symObjAddr: 0x9AB0, symBinAddr: 0x10000C458, symSize: 0x28 }
  - { offsetInCU: 0x1AACB, offset: 0x1AACB, size: 0x8, addend: 0x0, symName: __ZNKSt3__112basic_stringIcNS_11char_traitsIcEENS_9allocatorIcEEE16__get_short_sizeB7v160006Ev, symObjAddr: 0x9AD8, symBinAddr: 0x10000C480, symSize: 0x34 }
  - { offsetInCU: 0x1AAF1, offset: 0x1AAF1, size: 0x8, addend: 0x0, symName: __ZNSt3__112basic_stringIcNS_11char_traitsIcEENS_9allocatorIcEEE15__make_iteratorB7v160006EPc, symObjAddr: 0x9B0C, symBinAddr: 0x10000C4B4, symSize: 0x34 }
  - { offsetInCU: 0x1AB26, offset: 0x1AB26, size: 0x8, addend: 0x0, symName: __ZNSt3__111__wrap_iterIPcEC1B7v160006EPKvS1_, symObjAddr: 0x9B40, symBinAddr: 0x10000C4E8, symSize: 0x3C }
  - { offsetInCU: 0x1AB6C, offset: 0x1AB6C, size: 0x8, addend: 0x0, symName: __ZNSt3__111__wrap_iterIPcEC2B7v160006EPKvS1_, symObjAddr: 0x9B7C, symBinAddr: 0x10000C524, symSize: 0x24 }
  - { offsetInCU: 0x1ABB2, offset: 0x1ABB2, size: 0x8, addend: 0x0, symName: __ZNKSt3__111__wrap_iterIPcEplB7v160006El, symObjAddr: 0x9BA0, symBinAddr: 0x10000C548, symSize: 0x3C }
  - { offsetInCU: 0x1ABF4, offset: 0x1ABF4, size: 0x8, addend: 0x0, symName: __ZNSt3__111__wrap_iterIPcEpLB7v160006El, symObjAddr: 0x9BDC, symBinAddr: 0x10000C584, symSize: 0x28 }
  - { offsetInCU: 0x1AC28, offset: 0x1AC28, size: 0x8, addend: 0x0, symName: __ZNSt3__111char_traitsIcE6assignERcRKc, symObjAddr: 0x9C14, symBinAddr: 0x10000C5BC, symSize: 0x24 }
  - { offsetInCU: 0x1AC59, offset: 0x1AC59, size: 0x8, addend: 0x0, symName: __ZNSt3__112basic_stringIcNS_11char_traitsIcEENS_9allocatorIcEEE6appendB7v160006ERKS5_, symObjAddr: 0x9C38, symBinAddr: 0x10000C5E0, symSize: 0x4C }
  - { offsetInCU: 0x1AC8E, offset: 0x1AC8E, size: 0x8, addend: 0x0, symName: __ZNSt3__111char_traitsIcE4findEPKcmRS2_, symObjAddr: 0x9EBC, symBinAddr: 0x10000C864, symSize: 0x84 }
  - { offsetInCU: 0x1ACCD, offset: 0x1ACCD, size: 0x8, addend: 0x0, symName: __ZNSt3__111char_traitsIcE7compareEPKcS3_m, symObjAddr: 0x9F40, symBinAddr: 0x10000C8E8, symSize: 0x80 }
  - { offsetInCU: 0x1AD0C, offset: 0x1AD0C, size: 0x8, addend: 0x0, symName: __ZNSt3__16vectorIiNS_9allocatorIiEEE11__make_iterB7v160006EPi, symObjAddr: 0xA028, symBinAddr: 0x10000C9D0, symSize: 0x34 }
  - { offsetInCU: 0x1AD41, offset: 0x1AD41, size: 0x8, addend: 0x0, symName: __ZNSt3__111__wrap_iterIPiEC1B7v160006EPKvS1_, symObjAddr: 0xA05C, symBinAddr: 0x10000CA04, symSize: 0x3C }
  - { offsetInCU: 0x1AD87, offset: 0x1AD87, size: 0x8, addend: 0x0, symName: __ZNSt3__111__wrap_iterIPiEC2B7v160006EPKvS1_, symObjAddr: 0xA098, symBinAddr: 0x10000CA40, symSize: 0x24 }
  - { offsetInCU: 0x1ADCD, offset: 0x1ADCD, size: 0x8, addend: 0x0, symName: __ZNSt3__111__wrap_iterIPiEpLB7v160006El, symObjAddr: 0xA0BC, symBinAddr: 0x10000CA64, symSize: 0x28 }
  - { offsetInCU: 0x1AE01, offset: 0x1AE01, size: 0x8, addend: 0x0, symName: __ZNKSt3__16vectorIiNS_9allocatorIiEEE6cbeginB7v160006Ev, symObjAddr: 0xA12C, symBinAddr: 0x10000CAD4, symSize: 0x2C }
  - { offsetInCU: 0x1AE27, offset: 0x1AE27, size: 0x8, addend: 0x0, symName: __ZNSt3__16vectorIiNS_9allocatorIiEEE17__destruct_at_endB7v160006EPi, symObjAddr: 0xA158, symBinAddr: 0x10000CB00, symSize: 0x88 }
  - { offsetInCU: 0x1AE6B, offset: 0x1AE6B, size: 0x8, addend: 0x0, symName: __ZNSt3__16vectorIiNS_9allocatorIiEEE27__invalidate_iterators_pastB7v160006EPi, symObjAddr: 0xA220, symBinAddr: 0x10000CBC8, symSize: 0x14 }
  - { offsetInCU: 0x1AEA2, offset: 0x1AEA2, size: 0x8, addend: 0x0, symName: __ZNKSt3__111__wrap_iterIPKiE4baseB7v160006Ev, symObjAddr: 0xA234, symBinAddr: 0x10000CBDC, symSize: 0x18 }
  - { offsetInCU: 0x1AEC8, offset: 0x1AEC8, size: 0x8, addend: 0x0, symName: __ZNKSt3__16vectorIiNS_9allocatorIiEEE5beginB7v160006Ev, symObjAddr: 0xA24C, symBinAddr: 0x10000CBF4, symSize: 0x30 }
  - { offsetInCU: 0x1AEF0, offset: 0x1AEF0, size: 0x8, addend: 0x0, symName: __ZNKSt3__16vectorIiNS_9allocatorIiEEE11__make_iterB7v160006EPKi, symObjAddr: 0xA27C, symBinAddr: 0x10000CC24, symSize: 0x34 }
  - { offsetInCU: 0x1AF25, offset: 0x1AF25, size: 0x8, addend: 0x0, symName: __ZNSt3__111__wrap_iterIPKiEC1B7v160006EPKvS2_, symObjAddr: 0xA2B0, symBinAddr: 0x10000CC58, symSize: 0x3C }
  - { offsetInCU: 0x1AF6B, offset: 0x1AF6B, size: 0x8, addend: 0x0, symName: __ZNSt3__111__wrap_iterIPKiEC2B7v160006EPKvS2_, symObjAddr: 0xA2EC, symBinAddr: 0x10000CC94, symSize: 0x24 }
  - { offsetInCU: 0x1AFB1, offset: 0x1AFB1, size: 0x8, addend: 0x0, symName: __ZNKSt3__16vectorIiNS_9allocatorIiEEE17__annotate_shrinkB7v160006Em, symObjAddr: 0xA310, symBinAddr: 0x10000CCB8, symSize: 0xB4 }
  - { offsetInCU: 0x1B009, offset: 0x1B009, size: 0x8, addend: 0x0, symName: __ZNKSt3__114__move_trivialclB7v160006IiiLi0EEENS_4pairIPT_PT0_EES4_S4_S6_, symObjAddr: 0xA570, symBinAddr: 0x10000CF18, symSize: 0x48 }
  - { offsetInCU: 0x1B071, offset: 0x1B071, size: 0x8, addend: 0x0, symName: __ZNSt3__14pairIPiS1_EC1B7v160006ERKS1_S4_, symObjAddr: 0xA74C, symBinAddr: 0x10000D0F4, symSize: 0x3C }
  - { offsetInCU: 0x1B0B7, offset: 0x1B0B7, size: 0x8, addend: 0x0, symName: __ZNSt3__14pairIPiS1_EC2B7v160006ERKS1_S4_, symObjAddr: 0xA788, symBinAddr: 0x10000D130, symSize: 0x34 }
  - { offsetInCU: 0x1B0FD, offset: 0x1B0FD, size: 0x8, addend: 0x0, symName: __ZNSt3__118__unwrap_iter_implIPiLb1EE8__unwrapB7v160006ES1_, symObjAddr: 0xA7BC, symBinAddr: 0x10000D164, symSize: 0x24 }
  - { offsetInCU: 0x1B120, offset: 0x1B120, size: 0x8, addend: 0x0, symName: __ZNSt3__118__unwrap_iter_implIPiLb1EE8__rewrapB7v160006ES1_S1_, symObjAddr: 0xA7E0, symBinAddr: 0x10000D188, symSize: 0x50 }
  - { offsetInCU: 0x1B151, offset: 0x1B151, size: 0x8, addend: 0x0, symName: __ZNSt3__111__wrap_iterIPKiEC2B7v160006IPiEERKNS0_IT_EEPNS_9enable_ifIXsr14is_convertibleIS6_S2_EE5valueEvE4typeE, symObjAddr: 0xA830, symBinAddr: 0x10000D1D8, symSize: 0x40 }
  - { offsetInCU: 0x1B19D, offset: 0x1B19D, size: 0x8, addend: 0x0, symName: __ZNKSt3__111__wrap_iterIPiE4baseB7v160006Ev, symObjAddr: 0xA870, symBinAddr: 0x10000D218, symSize: 0x18 }
  - { offsetInCU: 0x1B1C3, offset: 0x1B1C3, size: 0x8, addend: 0x0, symName: __ZNSt3__16vectorI7ChannelNS_9allocatorIS1_EEE11__make_iterB7v160006EPS1_, symObjAddr: 0xA888, symBinAddr: 0x10000D230, symSize: 0x34 }
  - { offsetInCU: 0x1B1F8, offset: 0x1B1F8, size: 0x8, addend: 0x0, symName: __ZNSt3__111__wrap_iterIP7ChannelEC1B7v160006EPKvS2_, symObjAddr: 0xA8BC, symBinAddr: 0x10000D264, symSize: 0x3C }
  - { offsetInCU: 0x1B23E, offset: 0x1B23E, size: 0x8, addend: 0x0, symName: __ZNSt3__111__wrap_iterIP7ChannelEC2B7v160006EPKvS2_, symObjAddr: 0xA8F8, symBinAddr: 0x10000D2A0, symSize: 0x24 }
  - { offsetInCU: 0x1B284, offset: 0x1B284, size: 0x8, addend: 0x0, symName: __ZNKSt3__111__wrap_iterIP7ChannelE4baseB7v160006Ev, symObjAddr: 0xA964, symBinAddr: 0x10000D30C, symSize: 0x18 }
  - { offsetInCU: 0x1B2AA, offset: 0x1B2AA, size: 0x8, addend: 0x0, symName: __ZNSt3__111__wrap_iterIP7ChannelEppB7v160006Ev, symObjAddr: 0xA97C, symBinAddr: 0x10000D324, symSize: 0x20 }
  - { offsetInCU: 0x1B2D0, offset: 0x1B2D0, size: 0x8, addend: 0x0, symName: __ZNSt3__16vectorIP4UserNS_9allocatorIS2_EEED2B7v160006Ev, symObjAddr: 0xA99C, symBinAddr: 0x10000D344, symSize: 0x3C }
  - { offsetInCU: 0x1B2FA, offset: 0x1B2FA, size: 0x8, addend: 0x0, symName: __ZNSt3__16vectorIP4UserNS_9allocatorIS2_EEE16__destroy_vectorC1ERS5_, symObjAddr: 0xA9D8, symBinAddr: 0x10000D380, symSize: 0x34 }
  - { offsetInCU: 0x1B333, offset: 0x1B333, size: 0x8, addend: 0x0, symName: __ZNSt3__16vectorIP4UserNS_9allocatorIS2_EEE16__destroy_vectorclB7v160006Ev, symObjAddr: 0xAA0C, symBinAddr: 0x10000D3B4, symSize: 0x9C }
  - { offsetInCU: 0x1B359, offset: 0x1B359, size: 0x8, addend: 0x0, symName: __ZNSt3__16vectorIP4UserNS_9allocatorIS2_EEE16__destroy_vectorC2ERS5_, symObjAddr: 0xAAA8, symBinAddr: 0x10000D450, symSize: 0x20 }
  - { offsetInCU: 0x1B392, offset: 0x1B392, size: 0x8, addend: 0x0, symName: __ZNKSt3__16vectorIP4UserNS_9allocatorIS2_EEE17__annotate_deleteB7v160006Ev, symObjAddr: 0xAAC8, symBinAddr: 0x10000D470, symSize: 0xB8 }
  - { offsetInCU: 0x1B3B8, offset: 0x1B3B8, size: 0x8, addend: 0x0, symName: __ZNSt3__16vectorIP4UserNS_9allocatorIS2_EEE7__clearB7v160006Ev, symObjAddr: 0xAB90, symBinAddr: 0x10000D538, symSize: 0x28 }
  - { offsetInCU: 0x1B3DE, offset: 0x1B3DE, size: 0x8, addend: 0x0, symName: __ZNSt3__116allocator_traitsINS_9allocatorIP4UserEEE10deallocateB7v160006ERS4_PS3_m, symObjAddr: 0xABB8, symBinAddr: 0x10000D560, symSize: 0x34 }
  - { offsetInCU: 0x1B420, offset: 0x1B420, size: 0x8, addend: 0x0, symName: __ZNSt3__16vectorIP4UserNS_9allocatorIS2_EEE7__allocB7v160006Ev, symObjAddr: 0xABEC, symBinAddr: 0x10000D594, symSize: 0x28 }
  - { offsetInCU: 0x1B446, offset: 0x1B446, size: 0x8, addend: 0x0, symName: __ZNKSt3__16vectorIP4UserNS_9allocatorIS2_EEE8capacityB7v160006Ev, symObjAddr: 0xAC14, symBinAddr: 0x10000D5BC, symSize: 0x40 }
  - { offsetInCU: 0x1B46C, offset: 0x1B46C, size: 0x8, addend: 0x0, symName: __ZNKSt3__16vectorIP4UserNS_9allocatorIS2_EEE31__annotate_contiguous_containerB7v160006EPKvS7_S7_S7_, symObjAddr: 0xAC54, symBinAddr: 0x10000D5FC, symSize: 0x20 }
  - { offsetInCU: 0x1B4BE, offset: 0x1B4BE, size: 0x8, addend: 0x0, symName: __ZNKSt3__16vectorIP4UserNS_9allocatorIS2_EEE4dataB7v160006Ev, symObjAddr: 0xAC74, symBinAddr: 0x10000D61C, symSize: 0x28 }
  - { offsetInCU: 0x1B4E4, offset: 0x1B4E4, size: 0x8, addend: 0x0, symName: __ZNKSt3__16vectorIP4UserNS_9allocatorIS2_EEE4sizeB7v160006Ev, symObjAddr: 0xAC9C, symBinAddr: 0x10000D644, symSize: 0x28 }
  - { offsetInCU: 0x1B50A, offset: 0x1B50A, size: 0x8, addend: 0x0, symName: __ZNSt3__16vectorIP4UserNS_9allocatorIS2_EEE22__base_destruct_at_endB7v160006EPS2_, symObjAddr: 0xACD8, symBinAddr: 0x10000D680, symSize: 0xA0 }
  - { offsetInCU: 0x1B54E, offset: 0x1B54E, size: 0x8, addend: 0x0, symName: __ZNSt3__116allocator_traitsINS_9allocatorIP4UserEEE7destroyB7v160006IS3_vEEvRS4_PT_, symObjAddr: 0xAD78, symBinAddr: 0x10000D720, symSize: 0x2C }
  - { offsetInCU: 0x1B58B, offset: 0x1B58B, size: 0x8, addend: 0x0, symName: __ZNSt3__19allocatorIP4UserE7destroyB7v160006EPS2_, symObjAddr: 0xADA4, symBinAddr: 0x10000D74C, symSize: 0x14 }
  - { offsetInCU: 0x1B5BF, offset: 0x1B5BF, size: 0x8, addend: 0x0, symName: __ZNSt3__19allocatorIP4UserE10deallocateB7v160006EPS2_m, symObjAddr: 0xADB8, symBinAddr: 0x10000D760, symSize: 0x70 }
  - { offsetInCU: 0x1B601, offset: 0x1B601, size: 0x8, addend: 0x0, symName: __ZNSt3__117__compressed_pairIPP4UserNS_9allocatorIS2_EEE6secondB7v160006Ev, symObjAddr: 0xAE28, symBinAddr: 0x10000D7D0, symSize: 0x24 }
  - { offsetInCU: 0x1B627, offset: 0x1B627, size: 0x8, addend: 0x0, symName: __ZNSt3__122__compressed_pair_elemINS_9allocatorIP4UserEELi1ELb1EE5__getB7v160006Ev, symObjAddr: 0xAE4C, symBinAddr: 0x10000D7F4, symSize: 0x14 }
  - { offsetInCU: 0x1B64D, offset: 0x1B64D, size: 0x8, addend: 0x0, symName: __ZNKSt3__16vectorIP4UserNS_9allocatorIS2_EEE9__end_capB7v160006Ev, symObjAddr: 0xAE60, symBinAddr: 0x10000D808, symSize: 0x28 }
  - { offsetInCU: 0x1B673, offset: 0x1B673, size: 0x8, addend: 0x0, symName: __ZNKSt3__117__compressed_pairIPP4UserNS_9allocatorIS2_EEE5firstB7v160006Ev, symObjAddr: 0xAE88, symBinAddr: 0x10000D830, symSize: 0x24 }
  - { offsetInCU: 0x1B699, offset: 0x1B699, size: 0x8, addend: 0x0, symName: __ZNKSt3__122__compressed_pair_elemIPP4UserLi0ELb0EE5__getB7v160006Ev, symObjAddr: 0xAEAC, symBinAddr: 0x10000D854, symSize: 0x14 }
  - { offsetInCU: 0x1B6BF, offset: 0x1B6BF, size: 0x8, addend: 0x0, symName: __ZNSt3__16vectorIP4UserNS_9allocatorIS2_EEE11__make_iterB7v160006EPS2_, symObjAddr: 0xAEC0, symBinAddr: 0x10000D868, symSize: 0x34 }
  - { offsetInCU: 0x1B6F4, offset: 0x1B6F4, size: 0x8, addend: 0x0, symName: __ZNSt3__111__wrap_iterIPP4UserEC1B7v160006EPKvS3_, symObjAddr: 0xAEF4, symBinAddr: 0x10000D89C, symSize: 0x3C }
  - { offsetInCU: 0x1B73A, offset: 0x1B73A, size: 0x8, addend: 0x0, symName: __ZNSt3__111__wrap_iterIPP4UserEC2B7v160006EPKvS3_, symObjAddr: 0xAF30, symBinAddr: 0x10000D8D8, symSize: 0x24 }
  - { offsetInCU: 0x1B780, offset: 0x1B780, size: 0x8, addend: 0x0, symName: __ZNKSt3__111__wrap_iterIPP4UserE4baseB7v160006Ev, symObjAddr: 0xAF9C, symBinAddr: 0x10000D944, symSize: 0x18 }
  - { offsetInCU: 0x1B7A6, offset: 0x1B7A6, size: 0x8, addend: 0x0, symName: __ZNSt3__111__wrap_iterIPP4UserEppB7v160006Ev, symObjAddr: 0xAFB4, symBinAddr: 0x10000D95C, symSize: 0x20 }
  - { offsetInCU: 0x1B7CC, offset: 0x1B7CC, size: 0x8, addend: 0x0, symName: __ZNSt3__16__treeINS_12__value_typeIi4UserEENS_19__map_value_compareIiS3_NS_4lessIiEELb1EEENS_9allocatorIS3_EEE14__erase_uniqueIiEEmRKT_, symObjAddr: 0xAFD4, symBinAddr: 0x10000D97C, symSize: 0xA0 }
  - { offsetInCU: 0x1B81B, offset: 0x1B81B, size: 0x8, addend: 0x0, symName: __ZNSt3__16__treeINS_12__value_typeIi4UserEENS_19__map_value_compareIiS3_NS_4lessIiEELb1EEENS_9allocatorIS3_EEE4findIiEENS_15__tree_iteratorIS3_PNS_11__tree_nodeIS3_PvEElEERKT_, symObjAddr: 0xB074, symBinAddr: 0x10000DA1C, symSize: 0xF8 }
  - { offsetInCU: 0x1B86A, offset: 0x1B86A, size: 0x8, addend: 0x0, symName: __ZNSt3__16__treeINS_12__value_typeIi4UserEENS_19__map_value_compareIiS3_NS_4lessIiEELb1EEENS_9allocatorIS3_EEE3endB7v160006Ev, symObjAddr: 0xB19C, symBinAddr: 0x10000DB44, symSize: 0x34 }
  - { offsetInCU: 0x1B890, offset: 0x1B890, size: 0x8, addend: 0x0, symName: __ZNSt3__16__treeINS_12__value_typeIi4UserEENS_19__map_value_compareIiS3_NS_4lessIiEELb1EEENS_9allocatorIS3_EEE5eraseENS_21__tree_const_iteratorIS3_PNS_11__tree_nodeIS3_PvEElEE, symObjAddr: 0xB1D0, symBinAddr: 0x10000DB78, symSize: 0x98 }
  - { offsetInCU: 0x1B8F4, offset: 0x1B8F4, size: 0x8, addend: 0x0, symName: __ZNSt3__121__tree_const_iteratorINS_12__value_typeIi4UserEEPNS_11__tree_nodeIS3_PvEElEC1B7v160006ENS_15__tree_iteratorIS3_S7_lEE, symObjAddr: 0xB268, symBinAddr: 0x10000DC10, symSize: 0x34 }
  - { offsetInCU: 0x1B92D, offset: 0x1B92D, size: 0x8, addend: 0x0, symName: __ZNSt3__16__treeINS_12__value_typeIi4UserEENS_19__map_value_compareIiS3_NS_4lessIiEELb1EEENS_9allocatorIS3_EEE13__lower_boundIiEENS_15__tree_iteratorIS3_PNS_11__tree_nodeIS3_PvEElEERKT_SG_PNS_15__tree_end_nodeIPNS_16__tree_node_baseISE_EEEE, symObjAddr: 0xB29C, symBinAddr: 0x10000DC44, symSize: 0xA4 }
  - { offsetInCU: 0x1B98B, offset: 0x1B98B, size: 0x8, addend: 0x0, symName: __ZNKSt3__115__tree_iteratorINS_12__value_typeIi4UserEEPNS_11__tree_nodeIS3_PvEElEdeB7v160006Ev, symObjAddr: 0xB374, symBinAddr: 0x10000DD1C, symSize: 0x28 }
  - { offsetInCU: 0x1B9B1, offset: 0x1B9B1, size: 0x8, addend: 0x0, symName: __ZNSt3__115__tree_iteratorINS_12__value_typeIi4UserEEPNS_11__tree_nodeIS3_PvEElEC1B7v160006EPNS_15__tree_end_nodeIPNS_16__tree_node_baseIS5_EEEE, symObjAddr: 0xB39C, symBinAddr: 0x10000DD44, symSize: 0x34 }
  - { offsetInCU: 0x1B9EA, offset: 0x1B9EA, size: 0x8, addend: 0x0, symName: __ZNSt3__115__tree_iteratorINS_12__value_typeIi4UserEEPNS_11__tree_nodeIS3_PvEElEC2B7v160006EPNS_15__tree_end_nodeIPNS_16__tree_node_baseIS5_EEEE, symObjAddr: 0xB3D0, symBinAddr: 0x10000DD78, symSize: 0x20 }
  - { offsetInCU: 0x1BA23, offset: 0x1BA23, size: 0x8, addend: 0x0, symName: __ZNKSt3__115__tree_iteratorINS_12__value_typeIi4UserEEPNS_11__tree_nodeIS3_PvEElE8__get_npB7v160006Ev, symObjAddr: 0xB3F0, symBinAddr: 0x10000DD98, symSize: 0x18 }
  - { offsetInCU: 0x1BA49, offset: 0x1BA49, size: 0x8, addend: 0x0, symName: __ZNKSt3__121__tree_const_iteratorINS_12__value_typeIi4UserEEPNS_11__tree_nodeIS3_PvEElE8__get_npB7v160006Ev, symObjAddr: 0xB408, symBinAddr: 0x10000DDB0, symSize: 0x18 }
  - { offsetInCU: 0x1BA6F, offset: 0x1BA6F, size: 0x8, addend: 0x0, symName: __ZNSt3__16__treeINS_12__value_typeIi4UserEENS_19__map_value_compareIiS3_NS_4lessIiEELb1EEENS_9allocatorIS3_EEE21__remove_node_pointerEPNS_11__tree_nodeIS3_PvEE, symObjAddr: 0xB420, symBinAddr: 0x10000DDC8, symSize: 0xC8 }
  - { offsetInCU: 0x1BAB5, offset: 0x1BAB5, size: 0x8, addend: 0x0, symName: __ZNKSt3__121__tree_const_iteratorINS_12__value_typeIi4UserEEPNS_11__tree_nodeIS3_PvEElEdeB7v160006Ev, symObjAddr: 0xB4E8, symBinAddr: 0x10000DE90, symSize: 0x28 }
  - { offsetInCU: 0x1BADB, offset: 0x1BADB, size: 0x8, addend: 0x0, symName: __ZNSt3__115__tree_iteratorINS_12__value_typeIi4UserEEPNS_11__tree_nodeIS3_PvEElEppB7v160006Ev, symObjAddr: 0xB510, symBinAddr: 0x10000DEB8, symSize: 0x38 }
  - { offsetInCU: 0x1BB01, offset: 0x1BB01, size: 0x8, addend: 0x0, symName: __ZNSt3__121__tree_const_iteratorINS_12__value_typeIi4UserEEPNS_11__tree_nodeIS3_PvEElEC2B7v160006ENS_15__tree_iteratorIS3_S7_lEE, symObjAddr: 0xBD68, symBinAddr: 0x10000E710, symSize: 0x20 }
  - { offsetInCU: 0xAD8A, offset: 0x26B45, size: 0x8, addend: 0x0, symName: _main, symObjAddr: 0x0, symBinAddr: 0x10000E730, symSize: 0x18C }
  - { offsetInCU: 0xB282, offset: 0x2703D, size: 0x8, addend: 0x0, symName: __ZN6ServerD1Ev, symObjAddr: 0x298, symBinAddr: 0x10000E8BC, symSize: 0x2C }
  - { offsetInCU: 0xB2AE, offset: 0x27069, size: 0x8, addend: 0x0, symName: __ZN6ServerD2Ev, symObjAddr: 0x2C4, symBinAddr: 0x10000E8E8, symSize: 0x13C }
  - { offsetInCU: 0x5EBA, offset: 0x2CF72, size: 0x8, addend: 0x0, symName: __ZN4UserC2Ev, symObjAddr: 0x0, symBinAddr: 0x10000EA24, symSize: 0x114 }
  - { offsetInCU: 0x5EE6, offset: 0x2CF9E, size: 0x8, addend: 0x0, symName: __ZN4UserC1Ev, symObjAddr: 0x14C, symBinAddr: 0x10000EB38, symSize: 0x2C }
  - { offsetInCU: 0x5F12, offset: 0x2CFCA, size: 0x8, addend: 0x0, symName: __ZN4UserC2Ei, symObjAddr: 0x178, symBinAddr: 0x10000EB64, symSize: 0x110 }
  - { offsetInCU: 0x5F4C, offset: 0x2D004, size: 0x8, addend: 0x0, symName: __ZN4UserC1Ei, symObjAddr: 0x288, symBinAddr: 0x10000EC74, symSize: 0x34 }
  - { offsetInCU: 0x5F86, offset: 0x2D03E, size: 0x8, addend: 0x0, symName: __ZN4User11getNickNameEv, symObjAddr: 0x2BC, symBinAddr: 0x10000ECA8, symSize: 0x3C }
  - { offsetInCU: 0x5FAE, offset: 0x2D066, size: 0x8, addend: 0x0, symName: __ZN4User11setNickNameENSt3__112basic_stringIcNS0_11char_traitsIcEENS0_9allocatorIcEEEE, symObjAddr: 0x2F8, symBinAddr: 0x10000ECE4, symSize: 0x30 }
  - { offsetInCU: 0x5FE5, offset: 0x2D09D, size: 0x8, addend: 0x0, symName: __ZN4User11getRealNameEv, symObjAddr: 0x328, symBinAddr: 0x10000ED14, symSize: 0x38 }
  - { offsetInCU: 0x600D, offset: 0x2D0C5, size: 0x8, addend: 0x0, symName: __ZN4User11setRealNameENSt3__112basic_stringIcNS0_11char_traitsIcEENS0_9allocatorIcEEEE, symObjAddr: 0x360, symBinAddr: 0x10000ED4C, symSize: 0x2C }
  - { offsetInCU: 0x6044, offset: 0x2D0FC, size: 0x8, addend: 0x0, symName: __ZN4User11getUserNameEv, symObjAddr: 0x38C, symBinAddr: 0x10000ED78, symSize: 0x3C }
  - { offsetInCU: 0x606C, offset: 0x2D124, size: 0x8, addend: 0x0, symName: __ZN4User11setUserNameENSt3__112basic_stringIcNS0_11char_traitsIcEENS0_9allocatorIcEEEE, symObjAddr: 0x3C8, symBinAddr: 0x10000EDB4, symSize: 0x30 }
  - { offsetInCU: 0x60A3, offset: 0x2D15B, size: 0x8, addend: 0x0, symName: __ZN4User15setupClientNameEv, symObjAddr: 0x3F8, symBinAddr: 0x10000EDE4, symSize: 0x13C }
  - { offsetInCU: 0x610B, offset: 0x2D1C3, size: 0x8, addend: 0x0, symName: __ZN4User13getClientNameEv, symObjAddr: 0x634, symBinAddr: 0x10000EF20, symSize: 0x3C }
  - { offsetInCU: 0x6133, offset: 0x2D1EB, size: 0x8, addend: 0x0, symName: __ZN4User13setClientNameENSt3__112basic_stringIcNS0_11char_traitsIcEENS0_9allocatorIcEEEE, symObjAddr: 0x670, symBinAddr: 0x10000EF5C, symSize: 0x30 }
  - { offsetInCU: 0x616A, offset: 0x2D222, size: 0x8, addend: 0x0, symName: __ZN4User9setSocketEi, symObjAddr: 0x6A0, symBinAddr: 0x10000EF8C, symSize: 0x20 }
  - { offsetInCU: 0x970F, offset: 0x36996, size: 0x8, addend: 0x0, symName: __ZNSt3__17getlineB7v160006IcNS_11char_traitsIcEENS_9allocatorIcEEEERNS_13basic_istreamIT_T0_EES9_RNS_12basic_stringIS6_S7_T1_EE, symObjAddr: 0x7F8, symBinAddr: 0x10000F698, symSize: 0x5C }
  - { offsetInCU: 0x9767, offset: 0x369EE, size: 0x8, addend: 0x0, symName: __ZNSt3__16removeB7v160006INS_11__wrap_iterIPcEEcEET_S4_S4_RKT0_, symObjAddr: 0x938, symBinAddr: 0x10000F7D8, symSize: 0x108 }
  - { offsetInCU: 0x97DD, offset: 0x36A64, size: 0x8, addend: 0x0, symName: __ZNSt3__1lsB7v160006IcNS_11char_traitsIcEENS_9allocatorIcEEEERNS_13basic_ostreamIT_T0_EES9_RKNS_12basic_stringIS6_S7_T1_EE, symObjAddr: 0xB9C, symBinAddr: 0x10000F9E8, symSize: 0x4C }
  - { offsetInCU: 0x9835, offset: 0x36ABC, size: 0x8, addend: 0x0, symName: __ZNSt3__1rsB7v160006IcNS_11char_traitsIcEENS_9allocatorIcEEEERNS_13basic_istreamIT_T0_EES9_RNS_12basic_stringIS6_S7_T1_EE, symObjAddr: 0xD04, symBinAddr: 0x10000FB50, symSize: 0x310 }
  - { offsetInCU: 0x990D, offset: 0x36B94, size: 0x8, addend: 0x0, symName: __ZNSt3__1eqB7v160006IcNS_11char_traitsIcEENS_9allocatorIcEEEEbRKNS_12basic_stringIT_T0_T1_EEPKS6_, symObjAddr: 0x15F8, symBinAddr: 0x10001040C, symSize: 0xC0 }
  - { offsetInCU: 0x9974, offset: 0x36BFB, size: 0x8, addend: 0x0, symName: __ZNSt3__1eqB7v160006INS_9allocatorIcEEEEbRKNS_12basic_stringIcNS_11char_traitsIcEET_EES9_, symObjAddr: 0x1D58, symBinAddr: 0x1000107C0, symSize: 0x148 }
  - { offsetInCU: 0x99E7, offset: 0x36C6E, size: 0x8, addend: 0x0, symName: __ZNSt3__1neB7v160006ERKNS_14__map_iteratorINS_15__tree_iteratorINS_12__value_typeIi4UserEEPNS_11__tree_nodeIS4_PvEElEEEESC_, symObjAddr: 0x2094, symBinAddr: 0x100010A5C, symSize: 0x30 }
  - { offsetInCU: 0x9A24, offset: 0x36CAB, size: 0x8, addend: 0x0, symName: __ZNSt3__17getlineB7v160006IcNS_11char_traitsIcEENS_9allocatorIcEEEERNS_13basic_istreamIT_T0_EES9_RNS_12basic_stringIS6_S7_T1_EES6_, symObjAddr: 0x3CC0, symBinAddr: 0x100011634, symSize: 0x238 }
  - { offsetInCU: 0x9AE2, offset: 0x36D69, size: 0x8, addend: 0x0, symName: __ZNSt3__14findB7v160006INS_11__wrap_iterIPcEEcEET_S4_S4_RKT0_, symObjAddr: 0x4438, symBinAddr: 0x100011A44, symSize: 0x80 }
  - { offsetInCU: 0x9B3C, offset: 0x36DC3, size: 0x8, addend: 0x0, symName: __ZNSt3__1neB7v160006IPcEEbRKNS_11__wrap_iterIT_EES6_, symObjAddr: 0x44B8, symBinAddr: 0x100011AC4, symSize: 0x34 }
  - { offsetInCU: 0x9B7F, offset: 0x36E06, size: 0x8, addend: 0x0, symName: __ZNSt3__1eqB7v160006IPcEEbRKNS_11__wrap_iterIT_EES6_, symObjAddr: 0x4524, symBinAddr: 0x100011B18, symSize: 0x48 }
  - { offsetInCU: 0x9BC2, offset: 0x36E49, size: 0x8, addend: 0x0, symName: __ZNSt3__1miB7v160006IPKcPcEENS_11__wrap_iterIT_E15difference_typeERKS6_RKNS4_IT0_EE, symObjAddr: 0x4584, symBinAddr: 0x100011B78, symSize: 0x40 }
  - { offsetInCU: 0x9C0E, offset: 0x36E95, size: 0x8, addend: 0x0, symName: __ZNSt3__1miB7v160006IPKcS2_EENS_11__wrap_iterIT_E15difference_typeERKS5_RKNS3_IT0_EE, symObjAddr: 0x45C4, symBinAddr: 0x100011BB8, symSize: 0x40 }
  - { offsetInCU: 0x9C5A, offset: 0x36EE1, size: 0x8, addend: 0x0, symName: __ZNSt3__119__allocate_at_leastB7v160006INS_9allocatorINS_12basic_stringIcNS_11char_traitsIcEENS1_IcEEEEEEEENS_19__allocation_resultINS_16allocator_traitsIT_E7pointerEEERSA_m, symObjAddr: 0x5088, symBinAddr: 0x1000123E4, symSize: 0x40 }
  - { offsetInCU: 0x9C9D, offset: 0x36F24, size: 0x8, addend: 0x0, symName: __ZNSt3__142__uninitialized_allocator_move_if_noexceptB7v160006INS_9allocatorINS_12basic_stringIcNS_11char_traitsIcEENS1_IcEEEEEENS_16reverse_iteratorIPS6_EESA_SA_EET2_RT_T0_T1_SB_, symObjAddr: 0x5270, symBinAddr: 0x1000125CC, symSize: 0x134 }
  - { offsetInCU: 0x9D3D, offset: 0x36FC4, size: 0x8, addend: 0x0, symName: __ZNSt3__14swapB7v160006IPNS_12basic_stringIcNS_11char_traitsIcEENS_9allocatorIcEEEEEEvRT_S9_, symObjAddr: 0x53F0, symBinAddr: 0x10001274C, symSize: 0x3C }
  - { offsetInCU: 0x9D8E, offset: 0x37015, size: 0x8, addend: 0x0, symName: __ZNSt3__125__debug_db_invalidate_allB7v160006INS_6vectorINS_12basic_stringIcNS_11char_traitsIcEENS_9allocatorIcEEEENS5_IS7_EEEEEEvPT_, symObjAddr: 0x54F4, symBinAddr: 0x100012850, symSize: 0x10 }
  - { offsetInCU: 0x9DBF, offset: 0x37046, size: 0x8, addend: 0x0, symName: __ZNSt3__122__make_exception_guardB7v160006INS_29_AllocatorDestroyRangeReverseINS_9allocatorINS_12basic_stringIcNS_11char_traitsIcEENS2_IcEEEEEENS_16reverse_iteratorIPS7_EEEEEENS_28__exception_guard_exceptionsIT_EESE_, symObjAddr: 0x5504, symBinAddr: 0x100012860, symSize: 0x4C }
  - { offsetInCU: 0x9DF5, offset: 0x3707C, size: 0x8, addend: 0x0, symName: __ZNSt3__1neB7v160006IPNS_12basic_stringIcNS_11char_traitsIcEENS_9allocatorIcEEEES7_EEbRKNS_16reverse_iteratorIT_EERKNS8_IT0_EE, symObjAddr: 0x5594, symBinAddr: 0x1000128F0, symSize: 0x48 }
  - { offsetInCU: 0x9E41, offset: 0x370C8, size: 0x8, addend: 0x0, symName: __ZNSt3__112__to_addressB7v160006INS_16reverse_iteratorIPNS_12basic_stringIcNS_11char_traitsIcEENS_9allocatorIcEEEEEEvEENS_5decayIDTclsr19__to_address_helperIT_EE6__callclsr3stdE7declvalIRKSB_EEEEE4typeESD_, symObjAddr: 0x55DC, symBinAddr: 0x100012938, symSize: 0x24 }
  - { offsetInCU: 0x9EA0, offset: 0x37127, size: 0x8, addend: 0x0, symName: __ZNSt3__119__allocator_destroyB7v160006INS_9allocatorINS_12basic_stringIcNS_11char_traitsIcEENS1_IcEEEEEENS_16reverse_iteratorINS8_IPS6_EEEESB_EEvRT_T0_T1_, symObjAddr: 0x5898, symBinAddr: 0x100012BF4, symSize: 0x70 }
  - { offsetInCU: 0x9F05, offset: 0x3718C, size: 0x8, addend: 0x0, symName: __ZNSt3__1neB7v160006INS_16reverse_iteratorIPNS_12basic_stringIcNS_11char_traitsIcEENS_9allocatorIcEEEEEES9_EEbRKNS1_IT_EERKNS1_IT0_EE, symObjAddr: 0x5944, symBinAddr: 0x100012CA0, symSize: 0x60 }
  - { offsetInCU: 0x9F51, offset: 0x371D8, size: 0x8, addend: 0x0, symName: __ZNSt3__112__to_addressB7v160006INS_16reverse_iteratorINS1_IPNS_12basic_stringIcNS_11char_traitsIcEENS_9allocatorIcEEEEEEEEvEENS_5decayIDTclsr19__to_address_helperIT_EE6__callclsr3stdE7declvalIRKSC_EEEEE4typeESE_, symObjAddr: 0x59A4, symBinAddr: 0x100012D00, symSize: 0x24 }
  - { offsetInCU: 0xA3AE, offset: 0x37635, size: 0x8, addend: 0x0, symName: __ZNSt3__16vectorINS_12basic_stringIcNS_11char_traitsIcEENS_9allocatorIcEEEENS4_IS6_EEE26__swap_out_circular_bufferERNS_14__split_bufferIS6_RS7_EE, symObjAddr: 0x4AC8, symBinAddr: 0x100012058, symSize: 0x118 }
  - { offsetInCU: 0xC71B, offset: 0x399A2, size: 0x8, addend: 0x0, symName: __Z5asciiNSt3__112basic_stringIcNS_11char_traitsIcEENS_9allocatorIcEEEE, symObjAddr: 0x0, symBinAddr: 0x10000EFAC, symSize: 0x90 }
  - { offsetInCU: 0xCCB3, offset: 0x39F3A, size: 0x8, addend: 0x0, symName: __ZN8Commands13handleCommandERNSt3__13mapIi4UserNS0_4lessIiEENS0_9allocatorINS0_4pairIKiS2_EEEEEERNS0_6vectorI7ChannelNS5_ISD_EEEEiNS0_12basic_stringIcNS0_11char_traitsIcEENS5_IcEEEESL_, symObjAddr: 0x144, symBinAddr: 0x10000F03C, symSize: 0x554 }
  - { offsetInCU: 0xCE93, offset: 0x3A11A, size: 0x8, addend: 0x0, symName: __ZNSt3__119basic_istringstreamIcNS_11char_traitsIcEENS_9allocatorIcEEEC1B7v160006ERKNS_12basic_stringIcS2_S4_EEj, symObjAddr: 0x6C4, symBinAddr: 0x10000F590, symSize: 0x108 }
  - { offsetInCU: 0xCEDB, offset: 0x3A162, size: 0x8, addend: 0x0, symName: __ZNKSt3__19basic_iosIcNS_11char_traitsIcEEEcvPvB7v160006Ev, symObjAddr: 0x854, symBinAddr: 0x10000F6F4, symSize: 0x4C }
  - { offsetInCU: 0xCF00, offset: 0x3A187, size: 0x8, addend: 0x0, symName: __ZNSt3__112basic_stringIcNS_11char_traitsIcEENS_9allocatorIcEEE5eraseB7v160006ENS_11__wrap_iterIPKcEES9_, symObjAddr: 0x8A0, symBinAddr: 0x10000F740, symSize: 0x98 }
  - { offsetInCU: 0xCF65, offset: 0x3A1EC, size: 0x8, addend: 0x0, symName: __ZNSt3__112basic_stringIcNS_11char_traitsIcEENS_9allocatorIcEEE5beginB7v160006Ev, symObjAddr: 0xA40, symBinAddr: 0x10000F8E0, symSize: 0x60 }
  - { offsetInCU: 0xCF95, offset: 0x3A21C, size: 0x8, addend: 0x0, symName: __ZNSt3__111__wrap_iterIPKcEC1B7v160006IPcEERKNS0_IT_EEPNS_9enable_ifIXsr14is_convertibleIS6_S2_EE5valueEvE4typeE, symObjAddr: 0xAF4, symBinAddr: 0x10000F940, symSize: 0x3C }
  - { offsetInCU: 0xCFE0, offset: 0x3A267, size: 0x8, addend: 0x0, symName: __ZNSt3__16vectorINS_12basic_stringIcNS_11char_traitsIcEENS_9allocatorIcEEEENS4_IS6_EEE9push_backB7v160006ERKS6_, symObjAddr: 0xB30, symBinAddr: 0x10000F97C, symSize: 0x6C }
  - { offsetInCU: 0xD017, offset: 0x3A29E, size: 0x8, addend: 0x0, symName: __ZNSt3__16vectorINS_12basic_stringIcNS_11char_traitsIcEENS_9allocatorIcEEEENS4_IS6_EEE3endB7v160006Ev, symObjAddr: 0xBE8, symBinAddr: 0x10000FA34, symSize: 0x30 }
  - { offsetInCU: 0xD040, offset: 0x3A2C7, size: 0x8, addend: 0x0, symName: __ZNKSt3__111__wrap_iterIPNS_12basic_stringIcNS_11char_traitsIcEENS_9allocatorIcEEEEEmiB7v160006El, symObjAddr: 0xC18, symBinAddr: 0x10000FA64, symSize: 0x3C }
  - { offsetInCU: 0xD074, offset: 0x3A2FB, size: 0x8, addend: 0x0, symName: __ZNKSt3__111__wrap_iterIPNS_12basic_stringIcNS_11char_traitsIcEENS_9allocatorIcEEEEEdeB7v160006Ev, symObjAddr: 0xC54, symBinAddr: 0x10000FAA0, symSize: 0x18 }
  - { offsetInCU: 0xD099, offset: 0x3A320, size: 0x8, addend: 0x0, symName: __ZNSt3__16vectorINS_12basic_stringIcNS_11char_traitsIcEENS_9allocatorIcEEEENS4_IS6_EEE5beginB7v160006Ev, symObjAddr: 0xC6C, symBinAddr: 0x10000FAB8, symSize: 0x30 }
  - { offsetInCU: 0xD0C2, offset: 0x3A349, size: 0x8, addend: 0x0, symName: __ZNKSt3__112basic_stringIcNS_11char_traitsIcEENS_9allocatorIcEEE6substrB7v160006Emm, symObjAddr: 0xC9C, symBinAddr: 0x10000FAE8, symSize: 0x68 }
  - { offsetInCU: 0xD10B, offset: 0x3A392, size: 0x8, addend: 0x0, symName: __ZNSt3__119basic_istringstreamIcNS_11char_traitsIcEENS_9allocatorIcEEED1Ev, symObjAddr: 0x1014, symBinAddr: 0x10000FE60, symSize: 0x70 }
  - { offsetInCU: 0xD138, offset: 0x3A3BF, size: 0x8, addend: 0x0, symName: __ZN8Commands11findCommandERNSt3__13mapIi4UserNS0_4lessIiEENS0_9allocatorINS0_4pairIKiS2_EEEEEERNS0_6vectorI7ChannelNS5_ISD_EEEEiNS0_12basic_stringIcNS0_11char_traitsIcEENS5_IcEEEE, symObjAddr: 0x1090, symBinAddr: 0x10000FED0, symSize: 0x4F0 }
  - { offsetInCU: 0xD199, offset: 0x3A420, size: 0x8, addend: 0x0, symName: __ZNSt3__16vectorINS_12basic_stringIcNS_11char_traitsIcEENS_9allocatorIcEEEENS4_IS6_EEE5clearB7v160006Ev, symObjAddr: 0x1580, symBinAddr: 0x1000103C0, symSize: 0x4C }
  - { offsetInCU: 0xD1CE, offset: 0x3A455, size: 0x8, addend: 0x0, symName: __ZN8Commands9UnknowCmdER4Useri, symObjAddr: 0x1780, symBinAddr: 0x1000104CC, symSize: 0x168 }
  - { offsetInCU: 0xD212, offset: 0x3A499, size: 0x8, addend: 0x0, symName: __Z12SendToClientiNSt3__112basic_stringIcNS_11char_traitsIcEENS_9allocatorIcEEEE, symObjAddr: 0x18E8, symBinAddr: 0x100010634, symSize: 0x60 }
  - { offsetInCU: 0xD24A, offset: 0x3A4D1, size: 0x8, addend: 0x0, symName: __ZN8Commands11findChannelERNSt3__16vectorI7ChannelNS0_9allocatorIS2_EEEE, symObjAddr: 0x1B98, symBinAddr: 0x100010694, symSize: 0xF0 }
  - { offsetInCU: 0xD2AA, offset: 0x3A531, size: 0x8, addend: 0x0, symName: __ZNKSt3__111__wrap_iterIPNS_12basic_stringIcNS_11char_traitsIcEENS_9allocatorIcEEEEEplB7v160006El, symObjAddr: 0x1C88, symBinAddr: 0x100010784, symSize: 0x3C }
  - { offsetInCU: 0xD2EC, offset: 0x3A573, size: 0x8, addend: 0x0, symName: __ZNKSt3__112basic_stringIcNS_11char_traitsIcEENS_9allocatorIcEEE5c_strB7v160006Ev, symObjAddr: 0x1EEC, symBinAddr: 0x100010908, symSize: 0x24 }
  - { offsetInCU: 0xD312, offset: 0x3A599, size: 0x8, addend: 0x0, symName: __ZN8Commands8findUserERNSt3__13mapIi4UserNS0_4lessIiEENS0_9allocatorINS0_4pairIKiS2_EEEEEE, symObjAddr: 0x1F64, symBinAddr: 0x10001092C, symSize: 0xF8 }
  - { offsetInCU: 0xD372, offset: 0x3A5F9, size: 0x8, addend: 0x0, symName: __ZNSt3__13mapIi4UserNS_4lessIiEENS_9allocatorINS_4pairIKiS1_EEEEE5beginB7v160006Ev, symObjAddr: 0x205C, symBinAddr: 0x100010A24, symSize: 0x38 }
  - { offsetInCU: 0xD398, offset: 0x3A61F, size: 0x8, addend: 0x0, symName: __ZNSt3__13mapIi4UserNS_4lessIiEENS_9allocatorINS_4pairIKiS1_EEEEE3endB7v160006Ev, symObjAddr: 0x20C4, symBinAddr: 0x100010A8C, symSize: 0x38 }
  - { offsetInCU: 0xD3BE, offset: 0x3A645, size: 0x8, addend: 0x0, symName: __ZNKSt3__114__map_iteratorINS_15__tree_iteratorINS_12__value_typeIi4UserEEPNS_11__tree_nodeIS4_PvEElEEEdeB7v160006Ev, symObjAddr: 0x20FC, symBinAddr: 0x100010AC4, symSize: 0x28 }
  - { offsetInCU: 0xD3E4, offset: 0x3A66B, size: 0x8, addend: 0x0, symName: __ZNSt3__114__map_iteratorINS_15__tree_iteratorINS_12__value_typeIi4UserEEPNS_11__tree_nodeIS4_PvEElEEEppB7v160006Ei, symObjAddr: 0x2124, symBinAddr: 0x100010AEC, symSize: 0x34 }
  - { offsetInCU: 0xD424, offset: 0x3A6AB, size: 0x8, addend: 0x0, symName: __ZN8Commands11errorHandleE4UserNSt3__112basic_stringIcNS1_11char_traitsIcEENS1_9allocatorIcEEEEii, symObjAddr: 0x2158, symBinAddr: 0x100010B20, symSize: 0x70C }
  - { offsetInCU: 0xD495, offset: 0x3A71C, size: 0x8, addend: 0x0, symName: __ZNSt3__119basic_istringstreamIcNS_11char_traitsIcEENS_9allocatorIcEEED2Ev, symObjAddr: 0x2864, symBinAddr: 0x10001122C, symSize: 0x9C }
  - { offsetInCU: 0xD4CF, offset: 0x3A756, size: 0x8, addend: 0x0, symName: __ZTv0_n24_NSt3__119basic_istringstreamIcNS_11char_traitsIcEENS_9allocatorIcEEED1Ev, symObjAddr: 0x2900, symBinAddr: 0x1000112C8, symSize: 0x28 }
  - { offsetInCU: 0xD4EB, offset: 0x3A772, size: 0x8, addend: 0x0, symName: __ZNSt3__115basic_stringbufIcNS_11char_traitsIcEENS_9allocatorIcEEED1Ev, symObjAddr: 0x2928, symBinAddr: 0x1000112F0, symSize: 0x2C }
  - { offsetInCU: 0xD518, offset: 0x3A79F, size: 0x8, addend: 0x0, symName: __ZNSt3__115basic_stringbufIcNS_11char_traitsIcEENS_9allocatorIcEEED2Ev, symObjAddr: 0x2954, symBinAddr: 0x10001131C, symSize: 0x78 }
  - { offsetInCU: 0xD54F, offset: 0x3A7D6, size: 0x8, addend: 0x0, symName: __ZNSt3__19basic_iosIcNS_11char_traitsIcEEEC2B7v160006Ev, symObjAddr: 0x3398, symBinAddr: 0x100011394, symSize: 0x44 }
  - { offsetInCU: 0xD579, offset: 0x3A800, size: 0x8, addend: 0x0, symName: __ZNSt3__113basic_istreamIcNS_11char_traitsIcEEEC2B7v160006EPNS_15basic_streambufIcS2_EE, symObjAddr: 0x33DC, symBinAddr: 0x1000113D8, symSize: 0x64 }
  - { offsetInCU: 0xD5BE, offset: 0x3A845, size: 0x8, addend: 0x0, symName: __ZNSt3__115basic_stringbufIcNS_11char_traitsIcEENS_9allocatorIcEEEC1B7v160006ERKNS_12basic_stringIcS2_S4_EEj, symObjAddr: 0x3440, symBinAddr: 0x10001143C, symSize: 0x3C }
  - { offsetInCU: 0xD604, offset: 0x3A88B, size: 0x8, addend: 0x0, symName: __ZNSt3__18ios_baseC2B7v160006Ev, symObjAddr: 0x347C, symBinAddr: 0x100011478, symSize: 0x24 }
  - { offsetInCU: 0xD62D, offset: 0x3A8B4, size: 0x8, addend: 0x0, symName: __ZNSt3__19basic_iosIcNS_11char_traitsIcEEE4initB7v160006EPNS_15basic_streambufIcS2_EE, symObjAddr: 0x34A0, symBinAddr: 0x10001149C, symSize: 0x44 }
  - { offsetInCU: 0xD665, offset: 0x3A8EC, size: 0x8, addend: 0x0, symName: __ZNSt3__115basic_stringbufIcNS_11char_traitsIcEENS_9allocatorIcEEEC2B7v160006ERKNS_12basic_stringIcS2_S4_EEj, symObjAddr: 0x34EC, symBinAddr: 0x1000114E0, symSize: 0xD8 }
  - { offsetInCU: 0xD6AB, offset: 0x3A932, size: 0x8, addend: 0x0, symName: __ZNSt3__112basic_stringIcNS_11char_traitsIcEENS_9allocatorIcEEEC1B7v160006ERKS4_, symObjAddr: 0x35E8, symBinAddr: 0x1000115B8, symSize: 0x34 }
  - { offsetInCU: 0xD6E4, offset: 0x3A96B, size: 0x8, addend: 0x0, symName: __ZNSt3__112basic_stringIcNS_11char_traitsIcEENS_9allocatorIcEEEC2B7v160006ERKS4_, symObjAddr: 0x3678, symBinAddr: 0x1000115EC, symSize: 0x48 }
  - { offsetInCU: 0xD745, offset: 0x3A9CC, size: 0x8, addend: 0x0, symName: __ZNKSt3__113basic_istreamIcNS_11char_traitsIcEEE6sentrycvbB7v160006Ev, symObjAddr: 0x3EF8, symBinAddr: 0x10001186C, symSize: 0x1C }
  - { offsetInCU: 0xD76B, offset: 0x3A9F2, size: 0x8, addend: 0x0, symName: __ZNSt3__115basic_streambufIcNS_11char_traitsIcEEE6sbumpcB7v160006Ev, symObjAddr: 0x3FD4, symBinAddr: 0x100011888, symSize: 0x78 }
  - { offsetInCU: 0xD791, offset: 0x3AA18, size: 0x8, addend: 0x0, symName: __ZNSt3__111char_traitsIcE12to_char_typeEi, symObjAddr: 0x4074, symBinAddr: 0x100011900, symSize: 0x18 }
  - { offsetInCU: 0xD7B4, offset: 0x3AA3B, size: 0x8, addend: 0x0, symName: __ZNSt3__111char_traitsIcE2eqEcc, symObjAddr: 0x408C, symBinAddr: 0x100011918, symSize: 0x28 }
  - { offsetInCU: 0xD7E5, offset: 0x3AA6C, size: 0x8, addend: 0x0, symName: __ZNSt3__18ios_base18__setstate_nothrowB7v160006Ej, symObjAddr: 0x4160, symBinAddr: 0x100011940, symSize: 0x64 }
  - { offsetInCU: 0xD81A, offset: 0x3AAA1, size: 0x8, addend: 0x0, symName: __ZNKSt3__19basic_iosIcNS_11char_traitsIcEEE10exceptionsB7v160006Ev, symObjAddr: 0x41C4, symBinAddr: 0x1000119A4, symSize: 0x24 }
  - { offsetInCU: 0xD840, offset: 0x3AAC7, size: 0x8, addend: 0x0, symName: __ZNSt3__111char_traitsIcE11to_int_typeEc, symObjAddr: 0x42D8, symBinAddr: 0x1000119C8, symSize: 0x14 }
  - { offsetInCU: 0xD863, offset: 0x3AAEA, size: 0x8, addend: 0x0, symName: __ZNKSt3__18ios_base10exceptionsB7v160006Ev, symObjAddr: 0x4308, symBinAddr: 0x1000119DC, symSize: 0x18 }
  - { offsetInCU: 0xD88B, offset: 0x3AB12, size: 0x8, addend: 0x0, symName: __ZNKSt3__19basic_iosIcNS_11char_traitsIcEEE4failB7v160006Ev, symObjAddr: 0x4354, symBinAddr: 0x1000119F4, symSize: 0x28 }
  - { offsetInCU: 0xD8B1, offset: 0x3AB38, size: 0x8, addend: 0x0, symName: __ZNKSt3__18ios_base4failB7v160006Ev, symObjAddr: 0x437C, symBinAddr: 0x100011A1C, symSize: 0x28 }
  - { offsetInCU: 0xD8D9, offset: 0x3AB60, size: 0x8, addend: 0x0, symName: __ZNSt3__111__wrap_iterIPcEppB7v160006Ev, symObjAddr: 0x44EC, symBinAddr: 0x100011AF8, symSize: 0x20 }
  - { offsetInCU: 0xD8FF, offset: 0x3AB86, size: 0x8, addend: 0x0, symName: __ZNKSt3__111__wrap_iterIPcE4baseB7v160006Ev, symObjAddr: 0x456C, symBinAddr: 0x100011B60, symSize: 0x18 }
  - { offsetInCU: 0xD925, offset: 0x3ABAC, size: 0x8, addend: 0x0, symName: __ZNKSt3__111__wrap_iterIPKcE4baseB7v160006Ev, symObjAddr: 0x4640, symBinAddr: 0x100011BF8, symSize: 0x18 }
  - { offsetInCU: 0xD94B, offset: 0x3ABD2, size: 0x8, addend: 0x0, symName: __ZNSt3__111__wrap_iterIPKcEC2B7v160006IPcEERKNS0_IT_EEPNS_9enable_ifIXsr14is_convertibleIS6_S2_EE5valueEvE4typeE, symObjAddr: 0x4680, symBinAddr: 0x100011C10, symSize: 0x40 }
  - { offsetInCU: 0xD997, offset: 0x3AC1E, size: 0x8, addend: 0x0, symName: __ZNSt3__16vectorINS_12basic_stringIcNS_11char_traitsIcEENS_9allocatorIcEEEENS4_IS6_EEE9__end_capB7v160006Ev, symObjAddr: 0x46C0, symBinAddr: 0x100011C50, symSize: 0x28 }
  - { offsetInCU: 0xD9BD, offset: 0x3AC44, size: 0x8, addend: 0x0, symName: __ZNSt3__16vectorINS_12basic_stringIcNS_11char_traitsIcEENS_9allocatorIcEEEENS4_IS6_EEE22__construct_one_at_endB7v160006IJRKS6_EEEvDpOT_, symObjAddr: 0x46E8, symBinAddr: 0x100011C78, symSize: 0x98 }
  - { offsetInCU: 0xDA0B, offset: 0x3AC92, size: 0x8, addend: 0x0, symName: __ZNSt3__16vectorINS_12basic_stringIcNS_11char_traitsIcEENS_9allocatorIcEEEENS4_IS6_EEE21__push_back_slow_pathIRKS6_EEvOT_, symObjAddr: 0x4780, symBinAddr: 0x100011D10, symSize: 0xE0 }
  - { offsetInCU: 0xDA6A, offset: 0x3ACF1, size: 0x8, addend: 0x0, symName: __ZNSt3__117__compressed_pairIPNS_12basic_stringIcNS_11char_traitsIcEENS_9allocatorIcEEEENS4_IS6_EEE5firstB7v160006Ev, symObjAddr: 0x4860, symBinAddr: 0x100011DF0, symSize: 0x24 }
  - { offsetInCU: 0xDA90, offset: 0x3AD17, size: 0x8, addend: 0x0, symName: __ZNSt3__122__compressed_pair_elemIPNS_12basic_stringIcNS_11char_traitsIcEENS_9allocatorIcEEEELi0ELb0EE5__getB7v160006Ev, symObjAddr: 0x4884, symBinAddr: 0x100011E14, symSize: 0x14 }
  - { offsetInCU: 0xDACF, offset: 0x3AD56, size: 0x8, addend: 0x0, symName: __ZNSt3__16vectorINS_12basic_stringIcNS_11char_traitsIcEENS_9allocatorIcEEEENS4_IS6_EEE21_ConstructTransactionC1B7v160006ERS8_m, symObjAddr: 0x4898, symBinAddr: 0x100011E28, symSize: 0x3C }
  - { offsetInCU: 0xDB17, offset: 0x3AD9E, size: 0x8, addend: 0x0, symName: __ZNSt3__116allocator_traitsINS_9allocatorINS_12basic_stringIcNS_11char_traitsIcEENS1_IcEEEEEEE9constructB7v160006IS6_JRKS6_EvEEvRS7_PT_DpOT0_, symObjAddr: 0x48D4, symBinAddr: 0x100011E64, symSize: 0x34 }
  - { offsetInCU: 0xDB6E, offset: 0x3ADF5, size: 0x8, addend: 0x0, symName: __ZNSt3__16vectorINS_12basic_stringIcNS_11char_traitsIcEENS_9allocatorIcEEEENS4_IS6_EEE21_ConstructTransactionD1B7v160006Ev, symObjAddr: 0x4908, symBinAddr: 0x100011E98, symSize: 0x2C }
  - { offsetInCU: 0xDB98, offset: 0x3AE1F, size: 0x8, addend: 0x0, symName: __ZNSt3__16vectorINS_12basic_stringIcNS_11char_traitsIcEENS_9allocatorIcEEEENS4_IS6_EEE21_ConstructTransactionC2B7v160006ERS8_m, symObjAddr: 0x4934, symBinAddr: 0x100011EC4, symSize: 0x4C }
  - { offsetInCU: 0xDBE0, offset: 0x3AE67, size: 0x8, addend: 0x0, symName: __ZNSt3__19allocatorINS_12basic_stringIcNS_11char_traitsIcEENS0_IcEEEEE9constructB7v160006IS5_JRKS5_EEEvPT_DpOT0_, symObjAddr: 0x4980, symBinAddr: 0x100011F10, symSize: 0x30 }
  - { offsetInCU: 0xDC36, offset: 0x3AEBD, size: 0x8, addend: 0x0, symName: __ZNSt3__16vectorINS_12basic_stringIcNS_11char_traitsIcEENS_9allocatorIcEEEENS4_IS6_EEE21_ConstructTransactionD2B7v160006Ev, symObjAddr: 0x49B0, symBinAddr: 0x100011F40, symSize: 0x20 }
  - { offsetInCU: 0xDC5F, offset: 0x3AEE6, size: 0x8, addend: 0x0, symName: __ZNKSt3__16vectorINS_12basic_stringIcNS_11char_traitsIcEENS_9allocatorIcEEEENS4_IS6_EEE11__recommendB7v160006Em, symObjAddr: 0x49D0, symBinAddr: 0x100011F60, symSize: 0xB4 }
  - { offsetInCU: 0xDCB5, offset: 0x3AF3C, size: 0x8, addend: 0x0, symName: __ZNSt3__114__split_bufferINS_12basic_stringIcNS_11char_traitsIcEENS_9allocatorIcEEEERNS4_IS6_EEEC1EmmS8_, symObjAddr: 0x4A84, symBinAddr: 0x100012014, symSize: 0x44 }
  - { offsetInCU: 0xDD0B, offset: 0x3AF92, size: 0x8, addend: 0x0, symName: __ZNSt3__114__split_bufferINS_12basic_stringIcNS_11char_traitsIcEENS_9allocatorIcEEEERNS4_IS6_EEED1Ev, symObjAddr: 0x4BE0, symBinAddr: 0x100012170, symSize: 0x2C }
  - { offsetInCU: 0xDD36, offset: 0x3AFBD, size: 0x8, addend: 0x0, symName: __ZNKSt3__16vectorINS_12basic_stringIcNS_11char_traitsIcEENS_9allocatorIcEEEENS4_IS6_EEE8max_sizeEv, symObjAddr: 0x4C0C, symBinAddr: 0x10001219C, symSize: 0x74 }
  - { offsetInCU: 0xDD5F, offset: 0x3AFE6, size: 0x8, addend: 0x0, symName: __ZNKSt3__16vectorINS_12basic_stringIcNS_11char_traitsIcEENS_9allocatorIcEEEENS4_IS6_EEE20__throw_length_errorB7v160006Ev, symObjAddr: 0x4C80, symBinAddr: 0x100012210, symSize: 0x1C }
  - { offsetInCU: 0xDD8F, offset: 0x3B016, size: 0x8, addend: 0x0, symName: __ZNSt3__116allocator_traitsINS_9allocatorINS_12basic_stringIcNS_11char_traitsIcEENS1_IcEEEEEEE8max_sizeB7v160006IS7_vEEmRKS7_, symObjAddr: 0x4CF4, symBinAddr: 0x10001222C, symSize: 0x24 }
  - { offsetInCU: 0xDDBD, offset: 0x3B044, size: 0x8, addend: 0x0, symName: __ZNKSt3__16vectorINS_12basic_stringIcNS_11char_traitsIcEENS_9allocatorIcEEEENS4_IS6_EEE7__allocB7v160006Ev, symObjAddr: 0x4D18, symBinAddr: 0x100012250, symSize: 0x28 }
  - { offsetInCU: 0xDDE3, offset: 0x3B06A, size: 0x8, addend: 0x0, symName: __ZNKSt3__19allocatorINS_12basic_stringIcNS_11char_traitsIcEENS0_IcEEEEE8max_sizeB7v160006Ev, symObjAddr: 0x4DDC, symBinAddr: 0x100012278, symSize: 0x18 }
  - { offsetInCU: 0xDE09, offset: 0x3B090, size: 0x8, addend: 0x0, symName: __ZNKSt3__117__compressed_pairIPNS_12basic_stringIcNS_11char_traitsIcEENS_9allocatorIcEEEENS4_IS6_EEE6secondB7v160006Ev, symObjAddr: 0x4DF4, symBinAddr: 0x100012290, symSize: 0x24 }
  - { offsetInCU: 0xDE2F, offset: 0x3B0B6, size: 0x8, addend: 0x0, symName: __ZNKSt3__122__compressed_pair_elemINS_9allocatorINS_12basic_stringIcNS_11char_traitsIcEENS1_IcEEEEEELi1ELb1EE5__getB7v160006Ev, symObjAddr: 0x4E18, symBinAddr: 0x1000122B4, symSize: 0x14 }
  - { offsetInCU: 0xDE55, offset: 0x3B0DC, size: 0x8, addend: 0x0, symName: __ZNSt3__114__split_bufferINS_12basic_stringIcNS_11char_traitsIcEENS_9allocatorIcEEEERNS4_IS6_EEEC2EmmS8_, symObjAddr: 0x4F6C, symBinAddr: 0x1000122C8, symSize: 0xE0 }
  - { offsetInCU: 0xDEC8, offset: 0x3B14F, size: 0x8, addend: 0x0, symName: __ZNSt3__117__compressed_pairIPNS_12basic_stringIcNS_11char_traitsIcEENS_9allocatorIcEEEERNS4_IS6_EEEC1B7v160006IDnS9_EEOT_OT0_, symObjAddr: 0x504C, symBinAddr: 0x1000123A8, symSize: 0x3C }
  - { offsetInCU: 0xDF20, offset: 0x3B1A7, size: 0x8, addend: 0x0, symName: __ZNSt3__114__split_bufferINS_12basic_stringIcNS_11char_traitsIcEENS_9allocatorIcEEEERNS4_IS6_EEE7__allocB7v160006Ev, symObjAddr: 0x50C8, symBinAddr: 0x100012424, symSize: 0x28 }
  - { offsetInCU: 0xDF46, offset: 0x3B1CD, size: 0x8, addend: 0x0, symName: __ZNSt3__114__split_bufferINS_12basic_stringIcNS_11char_traitsIcEENS_9allocatorIcEEEERNS4_IS6_EEE9__end_capB7v160006Ev, symObjAddr: 0x50F0, symBinAddr: 0x10001244C, symSize: 0x28 }
  - { offsetInCU: 0xDF6C, offset: 0x3B1F3, size: 0x8, addend: 0x0, symName: __ZNSt3__117__compressed_pairIPNS_12basic_stringIcNS_11char_traitsIcEENS_9allocatorIcEEEERNS4_IS6_EEEC2B7v160006IDnS9_EEOT_OT0_, symObjAddr: 0x5118, symBinAddr: 0x100012474, symSize: 0x48 }
  - { offsetInCU: 0xDFC4, offset: 0x3B24B, size: 0x8, addend: 0x0, symName: __ZNSt3__122__compressed_pair_elemIRNS_9allocatorINS_12basic_stringIcNS_11char_traitsIcEENS1_IcEEEEEELi1ELb0EEC2B7v160006IS8_vEEOT_, symObjAddr: 0x5160, symBinAddr: 0x1000124BC, symSize: 0x20 }
  - { offsetInCU: 0xE006, offset: 0x3B28D, size: 0x8, addend: 0x0, symName: __ZNSt3__19allocatorINS_12basic_stringIcNS_11char_traitsIcEENS0_IcEEEEE8allocateB7v160006Em, symObjAddr: 0x5180, symBinAddr: 0x1000124DC, symSize: 0x8C }
  - { offsetInCU: 0xE03A, offset: 0x3B2C1, size: 0x8, addend: 0x0, symName: __ZNSt3__117__compressed_pairIPNS_12basic_stringIcNS_11char_traitsIcEENS_9allocatorIcEEEERNS4_IS6_EEE6secondB7v160006Ev, symObjAddr: 0x520C, symBinAddr: 0x100012568, symSize: 0x28 }
  - { offsetInCU: 0xE060, offset: 0x3B2E7, size: 0x8, addend: 0x0, symName: __ZNSt3__122__compressed_pair_elemIRNS_9allocatorINS_12basic_stringIcNS_11char_traitsIcEENS1_IcEEEEEELi1ELb0EE5__getB7v160006Ev, symObjAddr: 0x5234, symBinAddr: 0x100012590, symSize: 0x18 }
  - { offsetInCU: 0xE086, offset: 0x3B30D, size: 0x8, addend: 0x0, symName: __ZNSt3__117__compressed_pairIPNS_12basic_stringIcNS_11char_traitsIcEENS_9allocatorIcEEEERNS4_IS6_EEE5firstB7v160006Ev, symObjAddr: 0x524C, symBinAddr: 0x1000125A8, symSize: 0x24 }
  - { offsetInCU: 0xE0AC, offset: 0x3B333, size: 0x8, addend: 0x0, symName: __ZNSt3__116reverse_iteratorIPNS_12basic_stringIcNS_11char_traitsIcEENS_9allocatorIcEEEEEC1B7v160006ES7_, symObjAddr: 0x53A4, symBinAddr: 0x100012700, symSize: 0x34 }
  - { offsetInCU: 0xE0E4, offset: 0x3B36B, size: 0x8, addend: 0x0, symName: __ZNKSt3__116reverse_iteratorIPNS_12basic_stringIcNS_11char_traitsIcEENS_9allocatorIcEEEEE4baseB7v160006Ev, symObjAddr: 0x53D8, symBinAddr: 0x100012734, symSize: 0x18 }
  - { offsetInCU: 0xE10A, offset: 0x3B391, size: 0x8, addend: 0x0, symName: __ZNKSt3__16vectorINS_12basic_stringIcNS_11char_traitsIcEENS_9allocatorIcEEEENS4_IS6_EEE14__annotate_newB7v160006Em, symObjAddr: 0x542C, symBinAddr: 0x100012788, symSize: 0xC8 }
  - { offsetInCU: 0xE13F, offset: 0x3B3C6, size: 0x8, addend: 0x0, symName: __ZNSt3__129_AllocatorDestroyRangeReverseINS_9allocatorINS_12basic_stringIcNS_11char_traitsIcEENS1_IcEEEEEENS_16reverse_iteratorIPS6_EEEC1B7v160006ERS7_RSA_SD_, symObjAddr: 0x5550, symBinAddr: 0x1000128AC, symSize: 0x44 }
  - { offsetInCU: 0xE196, offset: 0x3B41D, size: 0x8, addend: 0x0, symName: __ZNKSt3__116reverse_iteratorIPNS_12basic_stringIcNS_11char_traitsIcEENS_9allocatorIcEEEEEdeB7v160006Ev, symObjAddr: 0x5600, symBinAddr: 0x10001295C, symSize: 0x28 }
  - { offsetInCU: 0xE1CA, offset: 0x3B451, size: 0x8, addend: 0x0, symName: __ZNSt3__116reverse_iteratorIPNS_12basic_stringIcNS_11char_traitsIcEENS_9allocatorIcEEEEEppB7v160006Ev, symObjAddr: 0x5628, symBinAddr: 0x100012984, symSize: 0x20 }
  - { offsetInCU: 0xE1F0, offset: 0x3B477, size: 0x8, addend: 0x0, symName: __ZNSt3__128__exception_guard_exceptionsINS_29_AllocatorDestroyRangeReverseINS_9allocatorINS_12basic_stringIcNS_11char_traitsIcEENS2_IcEEEEEENS_16reverse_iteratorIPS7_EEEEE10__completeB7v160006Ev, symObjAddr: 0x5648, symBinAddr: 0x1000129A4, symSize: 0x1C }
  - { offsetInCU: 0xE216, offset: 0x3B49D, size: 0x8, addend: 0x0, symName: __ZNSt3__128__exception_guard_exceptionsINS_29_AllocatorDestroyRangeReverseINS_9allocatorINS_12basic_stringIcNS_11char_traitsIcEENS2_IcEEEEEENS_16reverse_iteratorIPS7_EEEEED1B7v160006Ev, symObjAddr: 0x5664, symBinAddr: 0x1000129C0, symSize: 0x2C }
  - { offsetInCU: 0xE240, offset: 0x3B4C7, size: 0x8, addend: 0x0, symName: __ZNSt3__128__exception_guard_exceptionsINS_29_AllocatorDestroyRangeReverseINS_9allocatorINS_12basic_stringIcNS_11char_traitsIcEENS2_IcEEEEEENS_16reverse_iteratorIPS7_EEEEEC1B7v160006ESC_, symObjAddr: 0x5690, symBinAddr: 0x1000129EC, symSize: 0x34 }
  - { offsetInCU: 0xE279, offset: 0x3B500, size: 0x8, addend: 0x0, symName: __ZNSt3__128__exception_guard_exceptionsINS_29_AllocatorDestroyRangeReverseINS_9allocatorINS_12basic_stringIcNS_11char_traitsIcEENS2_IcEEEEEENS_16reverse_iteratorIPS7_EEEEEC2B7v160006ESC_, symObjAddr: 0x56C4, symBinAddr: 0x100012A20, symSize: 0x30 }
  - { offsetInCU: 0xE2B2, offset: 0x3B539, size: 0x8, addend: 0x0, symName: __ZNSt3__129_AllocatorDestroyRangeReverseINS_9allocatorINS_12basic_stringIcNS_11char_traitsIcEENS1_IcEEEEEENS_16reverse_iteratorIPS6_EEEC2B7v160006ERS7_RSA_SD_, symObjAddr: 0x56F4, symBinAddr: 0x100012A50, symSize: 0x38 }
  - { offsetInCU: 0xE30E, offset: 0x3B595, size: 0x8, addend: 0x0, symName: __ZNSt3__119__to_address_helperINS_16reverse_iteratorIPNS_12basic_stringIcNS_11char_traitsIcEENS_9allocatorIcEEEEEEvE6__callB7v160006ERKS9_, symObjAddr: 0x572C, symBinAddr: 0x100012A88, symSize: 0x4C }
  - { offsetInCU: 0xE331, offset: 0x3B5B8, size: 0x8, addend: 0x0, symName: __ZNKSt3__116reverse_iteratorIPNS_12basic_stringIcNS_11char_traitsIcEENS_9allocatorIcEEEEEptB7v160006Ev, symObjAddr: 0x5778, symBinAddr: 0x100012AD4, symSize: 0x24 }
  - { offsetInCU: 0xE357, offset: 0x3B5DE, size: 0x8, addend: 0x0, symName: __ZNSt3__128__exception_guard_exceptionsINS_29_AllocatorDestroyRangeReverseINS_9allocatorINS_12basic_stringIcNS_11char_traitsIcEENS2_IcEEEEEENS_16reverse_iteratorIPS7_EEEEED2B7v160006Ev, symObjAddr: 0x579C, symBinAddr: 0x100012AF8, symSize: 0x48 }
  - { offsetInCU: 0xE381, offset: 0x3B608, size: 0x8, addend: 0x0, symName: __ZNKSt3__129_AllocatorDestroyRangeReverseINS_9allocatorINS_12basic_stringIcNS_11char_traitsIcEENS1_IcEEEEEENS_16reverse_iteratorIPS6_EEEclB7v160006Ev, symObjAddr: 0x57E4, symBinAddr: 0x100012B40, symSize: 0xB4 }
  - { offsetInCU: 0xE3A8, offset: 0x3B62F, size: 0x8, addend: 0x0, symName: __ZNSt3__116reverse_iteratorINS0_IPNS_12basic_stringIcNS_11char_traitsIcEENS_9allocatorIcEEEEEEEC1B7v160006ES8_, symObjAddr: 0x5908, symBinAddr: 0x100012C64, symSize: 0x3C }
  - { offsetInCU: 0xE3E0, offset: 0x3B667, size: 0x8, addend: 0x0, symName: __ZNSt3__116reverse_iteratorINS0_IPNS_12basic_stringIcNS_11char_traitsIcEENS_9allocatorIcEEEEEEEppB7v160006Ev, symObjAddr: 0x59C8, symBinAddr: 0x100012D24, symSize: 0x30 }
  - { offsetInCU: 0xE406, offset: 0x3B68D, size: 0x8, addend: 0x0, symName: __ZNKSt3__116reverse_iteratorINS0_IPNS_12basic_stringIcNS_11char_traitsIcEENS_9allocatorIcEEEEEEE4baseB7v160006Ev, symObjAddr: 0x59F8, symBinAddr: 0x100012D54, symSize: 0x24 }
  - { offsetInCU: 0xE431, offset: 0x3B6B8, size: 0x8, addend: 0x0, symName: __ZNSt3__119__to_address_helperINS_16reverse_iteratorINS1_IPNS_12basic_stringIcNS_11char_traitsIcEENS_9allocatorIcEEEEEEEEvE6__callB7v160006ERKSA_, symObjAddr: 0x5A1C, symBinAddr: 0x100012D78, symSize: 0x4C }
  - { offsetInCU: 0xE454, offset: 0x3B6DB, size: 0x8, addend: 0x0, symName: __ZNKSt3__116reverse_iteratorINS0_IPNS_12basic_stringIcNS_11char_traitsIcEENS_9allocatorIcEEEEEEEptB7v160006Ev, symObjAddr: 0x5A68, symBinAddr: 0x100012DC4, symSize: 0x24 }
  - { offsetInCU: 0xE47A, offset: 0x3B701, size: 0x8, addend: 0x0, symName: __ZNKSt3__116reverse_iteratorINS0_IPNS_12basic_stringIcNS_11char_traitsIcEENS_9allocatorIcEEEEEEEdeB7v160006Ev, symObjAddr: 0x5A8C, symBinAddr: 0x100012DE8, symSize: 0x34 }
  - { offsetInCU: 0xE4AE, offset: 0x3B735, size: 0x8, addend: 0x0, symName: __ZNSt3__116reverse_iteratorIPNS_12basic_stringIcNS_11char_traitsIcEENS_9allocatorIcEEEEEmmB7v160006Ev, symObjAddr: 0x5AC0, symBinAddr: 0x100012E1C, symSize: 0x20 }
  - { offsetInCU: 0xE4D4, offset: 0x3B75B, size: 0x8, addend: 0x0, symName: __ZNSt3__116reverse_iteratorINS0_IPNS_12basic_stringIcNS_11char_traitsIcEENS_9allocatorIcEEEEEEEC2B7v160006ES8_, symObjAddr: 0x5AE0, symBinAddr: 0x100012E3C, symSize: 0x2C }
  - { offsetInCU: 0xE50C, offset: 0x3B793, size: 0x8, addend: 0x0, symName: __ZNSt3__116reverse_iteratorIPNS_12basic_stringIcNS_11char_traitsIcEENS_9allocatorIcEEEEEC2B7v160006ES7_, symObjAddr: 0x5B0C, symBinAddr: 0x100012E68, symSize: 0x28 }
  - { offsetInCU: 0xE544, offset: 0x3B7CB, size: 0x8, addend: 0x0, symName: __ZNSt3__114__split_bufferINS_12basic_stringIcNS_11char_traitsIcEENS_9allocatorIcEEEERNS4_IS6_EEED2Ev, symObjAddr: 0x5B34, symBinAddr: 0x100012E90, symSize: 0x80 }
  - { offsetInCU: 0xE570, offset: 0x3B7F7, size: 0x8, addend: 0x0, symName: __ZNSt3__114__split_bufferINS_12basic_stringIcNS_11char_traitsIcEENS_9allocatorIcEEEERNS4_IS6_EEE5clearB7v160006Ev, symObjAddr: 0x5BB4, symBinAddr: 0x100012F10, symSize: 0x28 }
  - { offsetInCU: 0xE596, offset: 0x3B81D, size: 0x8, addend: 0x0, symName: __ZNKSt3__114__split_bufferINS_12basic_stringIcNS_11char_traitsIcEENS_9allocatorIcEEEERNS4_IS6_EEE8capacityB7v160006Ev, symObjAddr: 0x5BDC, symBinAddr: 0x100012F38, symSize: 0x40 }
  - { offsetInCU: 0xE5BC, offset: 0x3B843, size: 0x8, addend: 0x0, symName: __ZNSt3__114__split_bufferINS_12basic_stringIcNS_11char_traitsIcEENS_9allocatorIcEEEERNS4_IS6_EEE17__destruct_at_endB7v160006EPS6_, symObjAddr: 0x5C1C, symBinAddr: 0x100012F78, symSize: 0x2C }
  - { offsetInCU: 0xE5EF, offset: 0x3B876, size: 0x8, addend: 0x0, symName: __ZNSt3__114__split_bufferINS_12basic_stringIcNS_11char_traitsIcEENS_9allocatorIcEEEERNS4_IS6_EEE17__destruct_at_endB7v160006EPS6_NS_17integral_constantIbLb0EEE, symObjAddr: 0x5C48, symBinAddr: 0x100012FA4, symSize: 0x94 }
  - { offsetInCU: 0xE631, offset: 0x3B8B8, size: 0x8, addend: 0x0, symName: __ZNKSt3__114__split_bufferINS_12basic_stringIcNS_11char_traitsIcEENS_9allocatorIcEEEERNS4_IS6_EEE9__end_capB7v160006Ev, symObjAddr: 0x5CDC, symBinAddr: 0x100013038, symSize: 0x28 }
  - { offsetInCU: 0xE657, offset: 0x3B8DE, size: 0x8, addend: 0x0, symName: __ZNKSt3__117__compressed_pairIPNS_12basic_stringIcNS_11char_traitsIcEENS_9allocatorIcEEEERNS4_IS6_EEE5firstB7v160006Ev, symObjAddr: 0x5D04, symBinAddr: 0x100013060, symSize: 0x24 }
  - { offsetInCU: 0xE67D, offset: 0x3B904, size: 0x8, addend: 0x0, symName: __ZNSt3__16vectorINS_12basic_stringIcNS_11char_traitsIcEENS_9allocatorIcEEEENS4_IS6_EEE11__make_iterB7v160006EPS6_, symObjAddr: 0x5D28, symBinAddr: 0x100013084, symSize: 0x34 }
  - { offsetInCU: 0xE6B2, offset: 0x3B939, size: 0x8, addend: 0x0, symName: __ZNSt3__111__wrap_iterIPNS_12basic_stringIcNS_11char_traitsIcEENS_9allocatorIcEEEEEC1B7v160006EPKvS7_, symObjAddr: 0x5D5C, symBinAddr: 0x1000130B8, symSize: 0x3C }
  - { offsetInCU: 0xE6F8, offset: 0x3B97F, size: 0x8, addend: 0x0, symName: __ZNSt3__111__wrap_iterIPNS_12basic_stringIcNS_11char_traitsIcEENS_9allocatorIcEEEEEC2B7v160006EPKvS7_, symObjAddr: 0x5D98, symBinAddr: 0x1000130F4, symSize: 0x24 }
  - { offsetInCU: 0xE75C, offset: 0x3B9E3, size: 0x8, addend: 0x0, symName: __ZNSt3__19allocatorIcEC1B7v160006Ev, symObjAddr: 0x6554, symBinAddr: 0x100013118, symSize: 0x2C }
  - { offsetInCU: 0xE786, offset: 0x3BA0D, size: 0x8, addend: 0x0, symName: __ZNSt3__115basic_streambufIcNS_11char_traitsIcEEE5sgetcB7v160006Ev, symObjAddr: 0x6580, symBinAddr: 0x100013144, symSize: 0x70 }
  - { offsetInCU: 0xE7AC, offset: 0x3BA33, size: 0x8, addend: 0x0, symName: __ZNKSt3__15ctypeIcE2isB7v160006Ejc, symObjAddr: 0x65F0, symBinAddr: 0x1000131B4, symSize: 0x7C }
  - { offsetInCU: 0xE7EF, offset: 0x3BA76, size: 0x8, addend: 0x0, symName: __Z7isasciii, symObjAddr: 0x666C, symBinAddr: 0x100013230, symSize: 0x24 }
  - { offsetInCU: 0xE81C, offset: 0x3BAA3, size: 0x8, addend: 0x0, symName: __ZNKSt3__16vectorINS_12basic_stringIcNS_11char_traitsIcEENS_9allocatorIcEEEENS4_IS6_EEE17__annotate_shrinkB7v160006Em, symObjAddr: 0x6690, symBinAddr: 0x100013254, symSize: 0xD0 }
  - { offsetInCU: 0xE860, offset: 0x3BAE7, size: 0x8, addend: 0x0, symName: __ZNSt3__111__wrap_iterIPNS_12basic_stringIcNS_11char_traitsIcEENS_9allocatorIcEEEEEpLB7v160006El, symObjAddr: 0x86A0, symBinAddr: 0x100013324, symSize: 0x30 }
  - { offsetInCU: 0xE894, offset: 0x3BB1B, size: 0x8, addend: 0x0, symName: __ZNSt3__16__treeINS_12__value_typeIi4UserEENS_19__map_value_compareIiS3_NS_4lessIiEELb1EEENS_9allocatorIS3_EEE5beginB7v160006Ev, symObjAddr: 0x88F4, symBinAddr: 0x100013354, symSize: 0x34 }
  - { offsetInCU: 0xE8BA, offset: 0x3BB41, size: 0x8, addend: 0x0, symName: __ZNSt3__114__map_iteratorINS_15__tree_iteratorINS_12__value_typeIi4UserEEPNS_11__tree_nodeIS4_PvEElEEEppB7v160006Ev, symObjAddr: 0x8A68, symBinAddr: 0x100013388, symSize: 0x2C }
  - { offsetInCU: 0xE8E0, offset: 0x3BB67, size: 0x8, addend: 0x0, symName: __ZNKSt3__115__tree_iteratorINS_12__value_typeIi4UserEEPNS_11__tree_nodeIS3_PvEElEptB7v160006Ev, symObjAddr: 0x8B8C, symBinAddr: 0x1000133B4, symSize: 0x2C }
  - { offsetInCU: 0xE906, offset: 0x3BB8D, size: 0x8, addend: 0x0, symName: __ZNSt3__114pointer_traitsIPNS_12__value_typeIi4UserEEE10pointer_toB7v160006ERS3_, symObjAddr: 0x8BB8, symBinAddr: 0x1000133E0, symSize: 0x14 }
  - { offsetInCU: 0x59E3, offset: 0x41669, size: 0x8, addend: 0x0, symName: __ZNSt3__119__debug_db_insert_cB7v160006INS_6vectorIP4UserNS_9allocatorIS3_EEEEEEvPT_, symObjAddr: 0x13A4, symBinAddr: 0x100013F5C, symSize: 0x10 }
  - { offsetInCU: 0x5A14, offset: 0x4169A, size: 0x8, addend: 0x0, symName: __ZNSt3__119__allocate_at_leastB7v160006INS_9allocatorIP4UserEEEENS_19__allocation_resultINS_16allocator_traitsIT_E7pointerEEERS7_m, symObjAddr: 0x23C4, symBinAddr: 0x1000147A8, symSize: 0x40 }
  - { offsetInCU: 0x5A57, offset: 0x416DD, size: 0x8, addend: 0x0, symName: __ZNSt3__142__uninitialized_allocator_move_if_noexceptB7v160006INS_9allocatorIP4UserEENS_16reverse_iteratorIPS3_EES7_S3_vEET1_RT_T0_SB_S8_, symObjAddr: 0x25A4, symBinAddr: 0x100014988, symSize: 0xE8 }
  - { offsetInCU: 0x5AD4, offset: 0x4175A, size: 0x8, addend: 0x0, symName: __ZNSt3__14swapB7v160006IPP4UserEEvRT_S5_, symObjAddr: 0x26D8, symBinAddr: 0x100014ABC, symSize: 0x3C }
  - { offsetInCU: 0x5B25, offset: 0x417AB, size: 0x8, addend: 0x0, symName: __ZNSt3__125__debug_db_invalidate_allB7v160006INS_6vectorIP4UserNS_9allocatorIS3_EEEEEEvPT_, symObjAddr: 0x27C0, symBinAddr: 0x100014BA4, symSize: 0x10 }
  - { offsetInCU: 0x5B56, offset: 0x417DC, size: 0x8, addend: 0x0, symName: __ZNSt3__1neB7v160006IPP4UserS3_EEbRKNS_16reverse_iteratorIT_EERKNS4_IT0_EE, symObjAddr: 0x27D0, symBinAddr: 0x100014BB4, symSize: 0x48 }
  - { offsetInCU: 0x5BC7, offset: 0x4184D, size: 0x8, addend: 0x0, symName: __ZNSt3__114__construct_atB7v160006IP4UserJS2_EPS2_EEPT_S5_DpOT0_, symObjAddr: 0x2818, symBinAddr: 0x100014BFC, symSize: 0x2C }
  - { offsetInCU: 0x5C37, offset: 0x418BD, size: 0x8, addend: 0x0, symName: __ZNSt3__112__to_addressB7v160006INS_16reverse_iteratorIPP4UserEEvEENS_5decayIDTclsr19__to_address_helperIT_EE6__callclsr3stdE7declvalIRKS7_EEEEE4typeES9_, symObjAddr: 0x2844, symBinAddr: 0x100014C28, symSize: 0x24 }
  - { offsetInCU: 0x5C6D, offset: 0x418F3, size: 0x8, addend: 0x0, symName: __ZNSt3__14moveB7v160006INS_16reverse_iteratorIPP4UserEES5_EET0_T_S7_S6_, symObjAddr: 0x28B0, symBinAddr: 0x100014C94, symSize: 0x78 }
  - { offsetInCU: 0x5CF0, offset: 0x41976, size: 0x8, addend: 0x0, symName: __ZNSt3__16__moveB7v160006INS_17_ClassicAlgPolicyENS_16reverse_iteratorIPP4UserEES6_S6_EENS_4pairIT0_T2_EES8_T1_S9_, symObjAddr: 0x2998, symBinAddr: 0x100014D7C, symSize: 0x64 }
  - { offsetInCU: 0x5D5C, offset: 0x419E2, size: 0x8, addend: 0x0, symName: __ZNSt3__123__dispatch_copy_or_moveB7v160006INS_17_ClassicAlgPolicyENS_11__move_loopIS1_EENS_14__move_trivialENS_16reverse_iteratorIPP4UserEES9_S9_EENS_4pairIT2_T4_EESB_T3_SC_, symObjAddr: 0x29FC, symBinAddr: 0x100014DE0, symSize: 0x7C }
  - { offsetInCU: 0x5DDA, offset: 0x41A60, size: 0x8, addend: 0x0, symName: __ZNSt3__121__unwrap_and_dispatchB7v160006INS_10__overloadINS_11__move_loopINS_17_ClassicAlgPolicyEEENS_14__move_trivialEEENS_16reverse_iteratorIPP4UserEESB_SB_Li0EEENS_4pairIT0_T2_EESD_T1_SE_, symObjAddr: 0x2A78, symBinAddr: 0x100014E5C, symSize: 0x12C }
  - { offsetInCU: 0x5E6A, offset: 0x41AF0, size: 0x8, addend: 0x0, symName: __ZNSt3__114__unwrap_rangeB7v160006INS_16reverse_iteratorIPP4UserEES5_EENS_4pairIT0_S7_EET_S9_, symObjAddr: 0x2BA4, symBinAddr: 0x100014F88, symSize: 0x84 }
  - { offsetInCU: 0x5FB5, offset: 0x41C3B, size: 0x8, addend: 0x0, symName: __ZNSt3__113__unwrap_iterB7v160006INS_16reverse_iteratorIPP4UserEENS_18__unwrap_iter_implIS5_Lb0EEELi0EEEDTclsrT0_8__unwrapclsr3stdE7declvalIT_EEEES9_, symObjAddr: 0x2CC8, symBinAddr: 0x1000150AC, symSize: 0x44 }
  - { offsetInCU: 0x5FF9, offset: 0x41C7F, size: 0x8, addend: 0x0, symName: __ZNSt3__19make_pairB7v160006INS_16reverse_iteratorIPP4UserEES5_EENS_4pairINS_18__unwrap_ref_decayIT_E4typeENS7_IT0_E4typeEEEOS8_OSB_, symObjAddr: 0x2D0C, symBinAddr: 0x1000150F0, symSize: 0x38 }
  - { offsetInCU: 0x6048, offset: 0x41CCE, size: 0x8, addend: 0x0, symName: __ZNSt3__114__rewrap_rangeB7v160006INS_16reverse_iteratorIPP4UserEES5_EET_S6_T0_, symObjAddr: 0x2D44, symBinAddr: 0x100015128, symSize: 0x5C }
  - { offsetInCU: 0x6094, offset: 0x41D1A, size: 0x8, addend: 0x0, symName: __ZNSt3__113__rewrap_iterB7v160006INS_16reverse_iteratorIPP4UserEES5_NS_18__unwrap_iter_implIS5_Lb0EEEEET_S8_T0_, symObjAddr: 0x2DA0, symBinAddr: 0x100015184, symSize: 0x88 }
  - { offsetInCU: 0x619B, offset: 0x41E21, size: 0x8, addend: 0x0, symName: __ZNSt3__1miB7v160006IPKP4UserS4_EENS_11__wrap_iterIT_E15difference_typeERKS7_RKNS5_IT0_EE, symObjAddr: 0x3548, symBinAddr: 0x100015514, symSize: 0x48 }
  - { offsetInCU: 0x61E7, offset: 0x41E6D, size: 0x8, addend: 0x0, symName: __ZNSt3__14moveB7v160006IPP4UserS3_EET0_T_S5_S4_, symObjAddr: 0x3644, symBinAddr: 0x100015610, symSize: 0x40 }
  - { offsetInCU: 0x6241, offset: 0x41EC7, size: 0x8, addend: 0x0, symName: __ZNSt3__16__moveB7v160006INS_17_ClassicAlgPolicyEPP4UserS4_S4_EENS_4pairIT0_T2_EES6_T1_S7_, symObjAddr: 0x3828, symBinAddr: 0x1000157F4, symSize: 0x44 }
  - { offsetInCU: 0x62AD, offset: 0x41F33, size: 0x8, addend: 0x0, symName: __ZNSt3__123__dispatch_copy_or_moveB7v160006INS_17_ClassicAlgPolicyENS_11__move_loopIS1_EENS_14__move_trivialEPP4UserS7_S7_EENS_4pairIT2_T4_EES9_T3_SA_, symObjAddr: 0x386C, symBinAddr: 0x100015838, symSize: 0x54 }
  - { offsetInCU: 0x632B, offset: 0x41FB1, size: 0x8, addend: 0x0, symName: __ZNSt3__121__unwrap_and_dispatchB7v160006INS_10__overloadINS_11__move_loopINS_17_ClassicAlgPolicyEEENS_14__move_trivialEEEPP4UserS9_S9_Li0EEENS_4pairIT0_T2_EESB_T1_SC_, symObjAddr: 0x38C0, symBinAddr: 0x10001588C, symSize: 0xB4 }
  - { offsetInCU: 0x63B9, offset: 0x4203F, size: 0x8, addend: 0x0, symName: __ZNSt3__114__unwrap_rangeB7v160006IPP4UserS3_EENS_4pairIT0_S5_EET_S7_, symObjAddr: 0x3974, symBinAddr: 0x100015940, symSize: 0x60 }
  - { offsetInCU: 0x64F8, offset: 0x4217E, size: 0x8, addend: 0x0, symName: __ZNSt3__113__unwrap_iterB7v160006IPP4UserNS_18__unwrap_iter_implIS3_Lb1EEELi0EEEDTclsrT0_8__unwrapclsr3stdE7declvalIT_EEEES7_, symObjAddr: 0x3A1C, symBinAddr: 0x1000159E8, symSize: 0x24 }
  - { offsetInCU: 0x653C, offset: 0x421C2, size: 0x8, addend: 0x0, symName: __ZNSt3__19make_pairB7v160006IPP4UserS3_EENS_4pairINS_18__unwrap_ref_decayIT_E4typeENS5_IT0_E4typeEEEOS6_OS9_, symObjAddr: 0x3A40, symBinAddr: 0x100015A0C, symSize: 0x38 }
  - { offsetInCU: 0x658B, offset: 0x42211, size: 0x8, addend: 0x0, symName: __ZNSt3__114__rewrap_rangeB7v160006IPP4UserS3_EET_S4_T0_, symObjAddr: 0x3A78, symBinAddr: 0x100015A44, symSize: 0x2C }
  - { offsetInCU: 0x65D7, offset: 0x4225D, size: 0x8, addend: 0x0, symName: __ZNSt3__113__rewrap_iterB7v160006IPP4UserS3_NS_18__unwrap_iter_implIS3_Lb1EEEEET_S6_T0_, symObjAddr: 0x3AA4, symBinAddr: 0x100015A70, symSize: 0x50 }
  - { offsetInCU: 0x662C, offset: 0x422B2, size: 0x8, addend: 0x0, symName: __ZNSt3__119__copy_trivial_implB7v160006IP4UserS2_EENS_4pairIPT_PT0_EES5_S5_S7_, symObjAddr: 0x3AF4, symBinAddr: 0x100015AC0, symSize: 0x84 }
  - { offsetInCU: 0x6694, offset: 0x4231A, size: 0x8, addend: 0x0, symName: __ZNSt3__19make_pairB7v160006IRPP4UserS3_EENS_4pairINS_18__unwrap_ref_decayIT_E4typeENS6_IT0_E4typeEEEOS7_OSA_, symObjAddr: 0x3B78, symBinAddr: 0x100015B44, symSize: 0x38 }
  - { offsetInCU: 0x6736, offset: 0x423BC, size: 0x8, addend: 0x0, symName: __ZNSt3__122__make_exception_guardB7v160006INS_6vectorIP4UserNS_9allocatorIS3_EEE16__destroy_vectorEEENS_28__exception_guard_exceptionsIT_EES9_, symObjAddr: 0x3E38, symBinAddr: 0x100015E04, symSize: 0x40 }
  - { offsetInCU: 0x676B, offset: 0x423F1, size: 0x8, addend: 0x0, symName: __ZNSt3__130__uninitialized_allocator_copyB7v160006INS_9allocatorIP4UserEEPS3_S5_S5_EET2_RT_T0_T1_S6_, symObjAddr: 0x40B4, symBinAddr: 0x100016080, symSize: 0xFC }
  - { offsetInCU: 0x6809, offset: 0x4248F, size: 0x8, addend: 0x0, symName: __ZNSt3__122__make_exception_guardB7v160006INS_29_AllocatorDestroyRangeReverseINS_9allocatorIP4UserEEPS4_EEEENS_28__exception_guard_exceptionsIT_EES9_, symObjAddr: 0x41B0, symBinAddr: 0x10001617C, symSize: 0x4C }
  - { offsetInCU: 0x683F, offset: 0x424C5, size: 0x8, addend: 0x0, symName: __ZNSt3__119__allocator_destroyB7v160006INS_9allocatorIP4UserEENS_16reverse_iteratorIPS3_EES7_EEvRT_T0_T1_, symObjAddr: 0x4430, symBinAddr: 0x1000163FC, symSize: 0x70 }
  - { offsetInCU: 0x6DB4, offset: 0x42A3A, size: 0x8, addend: 0x0, symName: __ZNSt3__16vectorIP4UserNS_9allocatorIS2_EEE26__swap_out_circular_bufferERNS_14__split_bufferIS2_RS4_EE, symObjAddr: 0x1E14, symBinAddr: 0x10001442C, symSize: 0x118 }
  - { offsetInCU: 0x8ED5, offset: 0x44B5B, size: 0x8, addend: 0x0, symName: __ZN7ChannelC2ENSt3__112basic_stringIcNS0_11char_traitsIcEENS0_9allocatorIcEEEEP4User, symObjAddr: 0x0, symBinAddr: 0x1000133F4, symSize: 0x138 }
  - { offsetInCU: 0x8F1E, offset: 0x44BA4, size: 0x8, addend: 0x0, symName: __ZNSt3__16vectorIP4UserNS_9allocatorIS2_EEEC1B7v160006Ev, symObjAddr: 0x164, symBinAddr: 0x10001352C, symSize: 0x2C }
  - { offsetInCU: 0x8F47, offset: 0x44BCD, size: 0x8, addend: 0x0, symName: __ZNSt3__16vectorIP4UserNS_9allocatorIS2_EEE9push_backB7v160006ERKS2_, symObjAddr: 0x190, symBinAddr: 0x100013558, symSize: 0x6C }
  - { offsetInCU: 0x8F7F, offset: 0x44C05, size: 0x8, addend: 0x0, symName: __ZN7ChannelC1ENSt3__112basic_stringIcNS0_11char_traitsIcEENS0_9allocatorIcEEEEP4User, symObjAddr: 0x234, symBinAddr: 0x1000135C4, symSize: 0x3C }
  - { offsetInCU: 0x8FC8, offset: 0x44C4E, size: 0x8, addend: 0x0, symName: __ZN7Channel7getNameEv, symObjAddr: 0x270, symBinAddr: 0x100013600, symSize: 0x38 }
  - { offsetInCU: 0x8FF0, offset: 0x44C76, size: 0x8, addend: 0x0, symName: __ZN7Channel7setNameENSt3__112basic_stringIcNS0_11char_traitsIcEENS0_9allocatorIcEEEE, symObjAddr: 0x2A8, symBinAddr: 0x100013638, symSize: 0x2C }
  - { offsetInCU: 0x9027, offset: 0x44CAD, size: 0x8, addend: 0x0, symName: __ZN7Channel8getTopicEv, symObjAddr: 0x2D4, symBinAddr: 0x100013664, symSize: 0x3C }
  - { offsetInCU: 0x904F, offset: 0x44CD5, size: 0x8, addend: 0x0, symName: __ZN7Channel8setTopicENSt3__112basic_stringIcNS0_11char_traitsIcEENS0_9allocatorIcEEEE, symObjAddr: 0x310, symBinAddr: 0x1000136A0, symSize: 0x30 }
  - { offsetInCU: 0x9086, offset: 0x44D0C, size: 0x8, addend: 0x0, symName: __ZN7Channel7addUserEP4User, symObjAddr: 0x340, symBinAddr: 0x1000136D0, symSize: 0x10C }
  - { offsetInCU: 0x90D0, offset: 0x44D56, size: 0x8, addend: 0x0, symName: __ZN7Channel10removeUserENSt3__112basic_stringIcNS0_11char_traitsIcEENS0_9allocatorIcEEEE, symObjAddr: 0x674, symBinAddr: 0x1000137DC, symSize: 0xE8 }
  - { offsetInCU: 0x9122, offset: 0x44DA8, size: 0x8, addend: 0x0, symName: __ZNSt3__16vectorIP4UserNS_9allocatorIS2_EEE5eraseB7v160006ENS_11__wrap_iterIPKS2_EE, symObjAddr: 0x75C, symBinAddr: 0x1000138C4, symSize: 0xB4 }
  - { offsetInCU: 0x9182, offset: 0x44E08, size: 0x8, addend: 0x0, symName: __ZNSt3__111__wrap_iterIPKP4UserEC1B7v160006IPS2_EERKNS0_IT_EEPNS_9enable_ifIXsr14is_convertibleIS8_S4_EE5valueEvE4typeE, symObjAddr: 0x810, symBinAddr: 0x100013978, symSize: 0x3C }
  - { offsetInCU: 0x91CE, offset: 0x44E54, size: 0x8, addend: 0x0, symName: __ZN7Channel8addAdminENSt3__112basic_stringIcNS0_11char_traitsIcEENS0_9allocatorIcEEEE, symObjAddr: 0x84C, symBinAddr: 0x1000139B4, symSize: 0x1BC }
  - { offsetInCU: 0x9219, offset: 0x44E9F, size: 0x8, addend: 0x0, symName: __ZN7Channel14userIsTheAdminENSt3__112basic_stringIcNS0_11char_traitsIcEENS0_9allocatorIcEEEE, symObjAddr: 0xA08, symBinAddr: 0x100013B70, symSize: 0xE8 }
  - { offsetInCU: 0x926C, offset: 0x44EF2, size: 0x8, addend: 0x0, symName: __ZN7Channel11removeAdminENSt3__112basic_stringIcNS0_11char_traitsIcEENS0_9allocatorIcEEEE, symObjAddr: 0xAF0, symBinAddr: 0x100013C58, symSize: 0xE8 }
  - { offsetInCU: 0x92BF, offset: 0x44F45, size: 0x8, addend: 0x0, symName: __ZN7Channel16userOnTheChannelENSt3__112basic_stringIcNS0_11char_traitsIcEENS0_9allocatorIcEEEE, symObjAddr: 0xBD8, symBinAddr: 0x100013D40, symSize: 0xE8 }
  - { offsetInCU: 0x9312, offset: 0x44F98, size: 0x8, addend: 0x0, symName: __ZN7Channel8getUsersEv, symObjAddr: 0xCC0, symBinAddr: 0x100013E28, symSize: 0x3C }
  - { offsetInCU: 0x933A, offset: 0x44FC0, size: 0x8, addend: 0x0, symName: __ZNSt3__16vectorIP4UserNS_9allocatorIS2_EEEC1ERKS5_, symObjAddr: 0xCFC, symBinAddr: 0x100013E64, symSize: 0x34 }
  - { offsetInCU: 0x9375, offset: 0x44FFB, size: 0x8, addend: 0x0, symName: __ZN7Channel9getAdminsEv, symObjAddr: 0xD30, symBinAddr: 0x100013E98, symSize: 0x3C }
  - { offsetInCU: 0x93A2, offset: 0x45028, size: 0x8, addend: 0x0, symName: __ZNSt3__16vectorIP4UserNS_9allocatorIS2_EEEC2B7v160006Ev, symObjAddr: 0x131C, symBinAddr: 0x100013ED4, symSize: 0x4C }
  - { offsetInCU: 0x93D1, offset: 0x45057, size: 0x8, addend: 0x0, symName: __ZNSt3__117__compressed_pairIPP4UserNS_9allocatorIS2_EEEC1B7v160006IDnNS_18__default_init_tagEEEOT_OT0_, symObjAddr: 0x1368, symBinAddr: 0x100013F20, symSize: 0x3C }
  - { offsetInCU: 0x9429, offset: 0x450AF, size: 0x8, addend: 0x0, symName: __ZNSt3__117__compressed_pairIPP4UserNS_9allocatorIS2_EEEC2B7v160006IDnNS_18__default_init_tagEEEOT_OT0_, symObjAddr: 0x13B4, symBinAddr: 0x100013F6C, symSize: 0x40 }
  - { offsetInCU: 0x9481, offset: 0x45107, size: 0x8, addend: 0x0, symName: __ZNSt3__122__compressed_pair_elemIPP4UserLi0ELb0EEC2B7v160006IDnvEEOT_, symObjAddr: 0x13F4, symBinAddr: 0x100013FAC, symSize: 0x1C }
  - { offsetInCU: 0x94C3, offset: 0x45149, size: 0x8, addend: 0x0, symName: __ZNSt3__122__compressed_pair_elemINS_9allocatorIP4UserEELi1ELb1EEC2B7v160006ENS_18__default_init_tagE, symObjAddr: 0x1410, symBinAddr: 0x100013FC8, symSize: 0x2C }
  - { offsetInCU: 0x94F8, offset: 0x4517E, size: 0x8, addend: 0x0, symName: __ZNSt3__19allocatorIP4UserEC2B7v160006Ev, symObjAddr: 0x143C, symBinAddr: 0x100013FF4, symSize: 0x2C }
  - { offsetInCU: 0x9522, offset: 0x451A8, size: 0x8, addend: 0x0, symName: __ZNSt3__116__non_trivial_ifILb1ENS_9allocatorIP4UserEEEC2B7v160006Ev, symObjAddr: 0x1468, symBinAddr: 0x100014020, symSize: 0x14 }
  - { offsetInCU: 0x954C, offset: 0x451D2, size: 0x8, addend: 0x0, symName: __ZNSt3__16vectorIP4UserNS_9allocatorIS2_EEE9__end_capB7v160006Ev, symObjAddr: 0x1A1C, symBinAddr: 0x100014034, symSize: 0x28 }
  - { offsetInCU: 0x9572, offset: 0x451F8, size: 0x8, addend: 0x0, symName: __ZNSt3__16vectorIP4UserNS_9allocatorIS2_EEE22__construct_one_at_endB7v160006IJRKS2_EEEvDpOT_, symObjAddr: 0x1A44, symBinAddr: 0x10001405C, symSize: 0x98 }
  - { offsetInCU: 0x95C0, offset: 0x45246, size: 0x8, addend: 0x0, symName: __ZNSt3__16vectorIP4UserNS_9allocatorIS2_EEE21__push_back_slow_pathIRKS2_EEvOT_, symObjAddr: 0x1ADC, symBinAddr: 0x1000140F4, symSize: 0xE0 }
  - { offsetInCU: 0x961F, offset: 0x452A5, size: 0x8, addend: 0x0, symName: __ZNSt3__117__compressed_pairIPP4UserNS_9allocatorIS2_EEE5firstB7v160006Ev, symObjAddr: 0x1BBC, symBinAddr: 0x1000141D4, symSize: 0x24 }
  - { offsetInCU: 0x9645, offset: 0x452CB, size: 0x8, addend: 0x0, symName: __ZNSt3__122__compressed_pair_elemIPP4UserLi0ELb0EE5__getB7v160006Ev, symObjAddr: 0x1BE0, symBinAddr: 0x1000141F8, symSize: 0x14 }
  - { offsetInCU: 0x9684, offset: 0x4530A, size: 0x8, addend: 0x0, symName: __ZNSt3__16vectorIP4UserNS_9allocatorIS2_EEE21_ConstructTransactionC1B7v160006ERS5_m, symObjAddr: 0x1BF4, symBinAddr: 0x10001420C, symSize: 0x3C }
  - { offsetInCU: 0x96CC, offset: 0x45352, size: 0x8, addend: 0x0, symName: __ZNSt3__116allocator_traitsINS_9allocatorIP4UserEEE9constructB7v160006IS3_JRKS3_EvEEvRS4_PT_DpOT0_, symObjAddr: 0x1C30, symBinAddr: 0x100014248, symSize: 0x34 }
  - { offsetInCU: 0x9723, offset: 0x453A9, size: 0x8, addend: 0x0, symName: __ZNSt3__16vectorIP4UserNS_9allocatorIS2_EEE21_ConstructTransactionD1B7v160006Ev, symObjAddr: 0x1C64, symBinAddr: 0x10001427C, symSize: 0x2C }
  - { offsetInCU: 0x974D, offset: 0x453D3, size: 0x8, addend: 0x0, symName: __ZNSt3__16vectorIP4UserNS_9allocatorIS2_EEE21_ConstructTransactionC2B7v160006ERS5_m, symObjAddr: 0x1C90, symBinAddr: 0x1000142A8, symSize: 0x44 }
  - { offsetInCU: 0x9795, offset: 0x4541B, size: 0x8, addend: 0x0, symName: __ZNSt3__19allocatorIP4UserE9constructB7v160006IS2_JRKS2_EEEvPT_DpOT0_, symObjAddr: 0x1CD4, symBinAddr: 0x1000142EC, symSize: 0x28 }
  - { offsetInCU: 0x97EB, offset: 0x45471, size: 0x8, addend: 0x0, symName: __ZNSt3__16vectorIP4UserNS_9allocatorIS2_EEE21_ConstructTransactionD2B7v160006Ev, symObjAddr: 0x1CFC, symBinAddr: 0x100014314, symSize: 0x20 }
  - { offsetInCU: 0x9814, offset: 0x4549A, size: 0x8, addend: 0x0, symName: __ZNKSt3__16vectorIP4UserNS_9allocatorIS2_EEE11__recommendB7v160006Em, symObjAddr: 0x1D1C, symBinAddr: 0x100014334, symSize: 0xB4 }
  - { offsetInCU: 0x986A, offset: 0x454F0, size: 0x8, addend: 0x0, symName: __ZNSt3__114__split_bufferIP4UserRNS_9allocatorIS2_EEEC1EmmS5_, symObjAddr: 0x1DD0, symBinAddr: 0x1000143E8, symSize: 0x44 }
  - { offsetInCU: 0x98C0, offset: 0x45546, size: 0x8, addend: 0x0, symName: __ZNSt3__114__split_bufferIP4UserRNS_9allocatorIS2_EEED1Ev, symObjAddr: 0x1F2C, symBinAddr: 0x100014544, symSize: 0x2C }
  - { offsetInCU: 0x98EB, offset: 0x45571, size: 0x8, addend: 0x0, symName: __ZNKSt3__16vectorIP4UserNS_9allocatorIS2_EEE8max_sizeEv, symObjAddr: 0x1F58, symBinAddr: 0x100014570, symSize: 0x74 }
  - { offsetInCU: 0x9914, offset: 0x4559A, size: 0x8, addend: 0x0, symName: __ZNKSt3__16vectorIP4UserNS_9allocatorIS2_EEE20__throw_length_errorB7v160006Ev, symObjAddr: 0x1FCC, symBinAddr: 0x1000145E4, symSize: 0x1C }
  - { offsetInCU: 0x9944, offset: 0x455CA, size: 0x8, addend: 0x0, symName: __ZNSt3__116allocator_traitsINS_9allocatorIP4UserEEE8max_sizeB7v160006IS4_vEEmRKS4_, symObjAddr: 0x2040, symBinAddr: 0x100014600, symSize: 0x24 }
  - { offsetInCU: 0x9972, offset: 0x455F8, size: 0x8, addend: 0x0, symName: __ZNKSt3__16vectorIP4UserNS_9allocatorIS2_EEE7__allocB7v160006Ev, symObjAddr: 0x2064, symBinAddr: 0x100014624, symSize: 0x28 }
  - { offsetInCU: 0x9998, offset: 0x4561E, size: 0x8, addend: 0x0, symName: __ZNKSt3__19allocatorIP4UserE8max_sizeB7v160006Ev, symObjAddr: 0x2128, symBinAddr: 0x10001464C, symSize: 0x14 }
  - { offsetInCU: 0x99BE, offset: 0x45644, size: 0x8, addend: 0x0, symName: __ZNKSt3__117__compressed_pairIPP4UserNS_9allocatorIS2_EEE6secondB7v160006Ev, symObjAddr: 0x213C, symBinAddr: 0x100014660, symSize: 0x24 }
  - { offsetInCU: 0x99E4, offset: 0x4566A, size: 0x8, addend: 0x0, symName: __ZNKSt3__122__compressed_pair_elemINS_9allocatorIP4UserEELi1ELb1EE5__getB7v160006Ev, symObjAddr: 0x2160, symBinAddr: 0x100014684, symSize: 0x14 }
  - { offsetInCU: 0x9A0A, offset: 0x45690, size: 0x8, addend: 0x0, symName: __ZNSt3__114__split_bufferIP4UserRNS_9allocatorIS2_EEEC2EmmS5_, symObjAddr: 0x22B4, symBinAddr: 0x100014698, symSize: 0xD4 }
  - { offsetInCU: 0x9A7D, offset: 0x45703, size: 0x8, addend: 0x0, symName: __ZNSt3__117__compressed_pairIPP4UserRNS_9allocatorIS2_EEEC1B7v160006IDnS6_EEOT_OT0_, symObjAddr: 0x2388, symBinAddr: 0x10001476C, symSize: 0x3C }
  - { offsetInCU: 0x9AD5, offset: 0x4575B, size: 0x8, addend: 0x0, symName: __ZNSt3__114__split_bufferIP4UserRNS_9allocatorIS2_EEE7__allocB7v160006Ev, symObjAddr: 0x2404, symBinAddr: 0x1000147E8, symSize: 0x28 }
  - { offsetInCU: 0x9AFB, offset: 0x45781, size: 0x8, addend: 0x0, symName: __ZNSt3__114__split_bufferIP4UserRNS_9allocatorIS2_EEE9__end_capB7v160006Ev, symObjAddr: 0x242C, symBinAddr: 0x100014810, symSize: 0x28 }
  - { offsetInCU: 0x9B21, offset: 0x457A7, size: 0x8, addend: 0x0, symName: __ZNSt3__117__compressed_pairIPP4UserRNS_9allocatorIS2_EEEC2B7v160006IDnS6_EEOT_OT0_, symObjAddr: 0x2454, symBinAddr: 0x100014838, symSize: 0x48 }
  - { offsetInCU: 0x9B79, offset: 0x457FF, size: 0x8, addend: 0x0, symName: __ZNSt3__122__compressed_pair_elemIRNS_9allocatorIP4UserEELi1ELb0EEC2B7v160006IS5_vEEOT_, symObjAddr: 0x249C, symBinAddr: 0x100014880, symSize: 0x20 }
  - { offsetInCU: 0x9BBB, offset: 0x45841, size: 0x8, addend: 0x0, symName: __ZNSt3__19allocatorIP4UserE8allocateB7v160006Em, symObjAddr: 0x24BC, symBinAddr: 0x1000148A0, symSize: 0x84 }
  - { offsetInCU: 0x9BEF, offset: 0x45875, size: 0x8, addend: 0x0, symName: __ZNSt3__117__compressed_pairIPP4UserRNS_9allocatorIS2_EEE6secondB7v160006Ev, symObjAddr: 0x2540, symBinAddr: 0x100014924, symSize: 0x28 }
  - { offsetInCU: 0x9C15, offset: 0x4589B, size: 0x8, addend: 0x0, symName: __ZNSt3__122__compressed_pair_elemIRNS_9allocatorIP4UserEELi1ELb0EE5__getB7v160006Ev, symObjAddr: 0x2568, symBinAddr: 0x10001494C, symSize: 0x18 }
  - { offsetInCU: 0x9C3B, offset: 0x458C1, size: 0x8, addend: 0x0, symName: __ZNSt3__117__compressed_pairIPP4UserRNS_9allocatorIS2_EEE5firstB7v160006Ev, symObjAddr: 0x2580, symBinAddr: 0x100014964, symSize: 0x24 }
  - { offsetInCU: 0x9C61, offset: 0x458E7, size: 0x8, addend: 0x0, symName: __ZNSt3__116reverse_iteratorIPP4UserEC1B7v160006ES3_, symObjAddr: 0x268C, symBinAddr: 0x100014A70, symSize: 0x34 }
  - { offsetInCU: 0x9C99, offset: 0x4591F, size: 0x8, addend: 0x0, symName: __ZNKSt3__116reverse_iteratorIPP4UserE4baseB7v160006Ev, symObjAddr: 0x26C0, symBinAddr: 0x100014AA4, symSize: 0x18 }
  - { offsetInCU: 0x9CBF, offset: 0x45945, size: 0x8, addend: 0x0, symName: __ZNKSt3__16vectorIP4UserNS_9allocatorIS2_EEE14__annotate_newB7v160006Em, symObjAddr: 0x2714, symBinAddr: 0x100014AF8, symSize: 0xAC }
  - { offsetInCU: 0x9CF4, offset: 0x4597A, size: 0x8, addend: 0x0, symName: __ZNKSt3__116reverse_iteratorIPP4UserEdeB7v160006Ev, symObjAddr: 0x2868, symBinAddr: 0x100014C4C, symSize: 0x28 }
  - { offsetInCU: 0x9D28, offset: 0x459AE, size: 0x8, addend: 0x0, symName: __ZNSt3__116reverse_iteratorIPP4UserEppB7v160006Ev, symObjAddr: 0x2890, symBinAddr: 0x100014C74, symSize: 0x20 }
  - { offsetInCU: 0x9D53, offset: 0x459D9, size: 0x8, addend: 0x0, symName: __ZNSt3__119__to_address_helperINS_16reverse_iteratorIPP4UserEEvE6__callB7v160006ERKS5_, symObjAddr: 0x2928, symBinAddr: 0x100014D0C, symSize: 0x4C }
  - { offsetInCU: 0x9D76, offset: 0x459FC, size: 0x8, addend: 0x0, symName: __ZNKSt3__116reverse_iteratorIPP4UserEptB7v160006Ev, symObjAddr: 0x2974, symBinAddr: 0x100014D58, symSize: 0x24 }
  - { offsetInCU: 0x9DBF, offset: 0x45A45, size: 0x8, addend: 0x0, symName: __ZNKSt3__111__move_loopINS_17_ClassicAlgPolicyEEclB7v160006INS_16reverse_iteratorIPP4UserEES8_S8_EENS_4pairIT_T1_EESA_T0_SB_, symObjAddr: 0x2C28, symBinAddr: 0x10001500C, symSize: 0xA0 }
  - { offsetInCU: 0x9E2F, offset: 0x45AB5, size: 0x8, addend: 0x0, symName: __ZNSt3__18_IterOpsINS_17_ClassicAlgPolicyEE11__iter_moveB7v160006IRNS_16reverse_iteratorIPP4UserEEEENS_9enable_ifIXsr12is_referenceIDTdeclsr3stdE7declvalIRT_EEEEE5valueEDTclsr3stdE4movedeclsr3stdE7declvalISC_EEEEE4typeEOSB_, symObjAddr: 0x2E28, symBinAddr: 0x10001520C, symSize: 0x28 }
  - { offsetInCU: 0x9E5B, offset: 0x45AE1, size: 0x8, addend: 0x0, symName: __ZNSt3__18_IterOpsINS_17_ClassicAlgPolicyEE25__validate_iter_referenceB7v160006IRNS_16reverse_iteratorIPP4UserEEEEvv, symObjAddr: 0x2E50, symBinAddr: 0x100015234, symSize: 0x4 }
  - { offsetInCU: 0x9E79, offset: 0x45AFF, size: 0x8, addend: 0x0, symName: __ZNSt3__118__unwrap_iter_implINS_16reverse_iteratorIPP4UserEELb0EE8__unwrapB7v160006ES5_, symObjAddr: 0x2E54, symBinAddr: 0x100015238, symSize: 0x24 }
  - { offsetInCU: 0x9E9C, offset: 0x45B22, size: 0x8, addend: 0x0, symName: __ZNSt3__14pairINS_16reverse_iteratorIPP4UserEES5_EC1B7v160006ERKS5_S8_, symObjAddr: 0x2E78, symBinAddr: 0x10001525C, symSize: 0x3C }
  - { offsetInCU: 0x9EE2, offset: 0x45B68, size: 0x8, addend: 0x0, symName: __ZNSt3__14pairINS_16reverse_iteratorIPP4UserEES5_EC2B7v160006ERKS5_S8_, symObjAddr: 0x2EB4, symBinAddr: 0x100015298, symSize: 0x34 }
  - { offsetInCU: 0x9F28, offset: 0x45BAE, size: 0x8, addend: 0x0, symName: __ZNSt3__118__unwrap_iter_implINS_16reverse_iteratorIPP4UserEELb0EE8__rewrapB7v160006ES5_S5_, symObjAddr: 0x2EE8, symBinAddr: 0x1000152CC, symSize: 0x2C }
  - { offsetInCU: 0x9F56, offset: 0x45BDC, size: 0x8, addend: 0x0, symName: __ZNSt3__116reverse_iteratorIPP4UserEC2B7v160006ES3_, symObjAddr: 0x2F14, symBinAddr: 0x1000152F8, symSize: 0x28 }
  - { offsetInCU: 0x9F8E, offset: 0x45C14, size: 0x8, addend: 0x0, symName: __ZNSt3__114__split_bufferIP4UserRNS_9allocatorIS2_EEED2Ev, symObjAddr: 0x2F3C, symBinAddr: 0x100015320, symSize: 0x80 }
  - { offsetInCU: 0x9FBA, offset: 0x45C40, size: 0x8, addend: 0x0, symName: __ZNSt3__114__split_bufferIP4UserRNS_9allocatorIS2_EEE5clearB7v160006Ev, symObjAddr: 0x2FBC, symBinAddr: 0x1000153A0, symSize: 0x28 }
  - { offsetInCU: 0x9FE0, offset: 0x45C66, size: 0x8, addend: 0x0, symName: __ZNKSt3__114__split_bufferIP4UserRNS_9allocatorIS2_EEE8capacityB7v160006Ev, symObjAddr: 0x2FE4, symBinAddr: 0x1000153C8, symSize: 0x40 }
  - { offsetInCU: 0xA006, offset: 0x45C8C, size: 0x8, addend: 0x0, symName: __ZNSt3__114__split_bufferIP4UserRNS_9allocatorIS2_EEE17__destruct_at_endB7v160006EPS2_, symObjAddr: 0x3024, symBinAddr: 0x100015408, symSize: 0x2C }
  - { offsetInCU: 0xA039, offset: 0x45CBF, size: 0x8, addend: 0x0, symName: __ZNSt3__114__split_bufferIP4UserRNS_9allocatorIS2_EEE17__destruct_at_endB7v160006EPS2_NS_17integral_constantIbLb0EEE, symObjAddr: 0x3050, symBinAddr: 0x100015434, symSize: 0x94 }
  - { offsetInCU: 0xA07B, offset: 0x45D01, size: 0x8, addend: 0x0, symName: __ZNKSt3__114__split_bufferIP4UserRNS_9allocatorIS2_EEE9__end_capB7v160006Ev, symObjAddr: 0x30E4, symBinAddr: 0x1000154C8, symSize: 0x28 }
  - { offsetInCU: 0xA0A1, offset: 0x45D27, size: 0x8, addend: 0x0, symName: __ZNKSt3__117__compressed_pairIPP4UserRNS_9allocatorIS2_EEE5firstB7v160006Ev, symObjAddr: 0x310C, symBinAddr: 0x1000154F0, symSize: 0x24 }
  - { offsetInCU: 0xA0C7, offset: 0x45D4D, size: 0x8, addend: 0x0, symName: __ZNKSt3__16vectorIP4UserNS_9allocatorIS2_EEE6cbeginB7v160006Ev, symObjAddr: 0x3590, symBinAddr: 0x10001555C, symSize: 0x2C }
  - { offsetInCU: 0xA0ED, offset: 0x45D73, size: 0x8, addend: 0x0, symName: __ZNSt3__16vectorIP4UserNS_9allocatorIS2_EEE17__destruct_at_endB7v160006EPS2_, symObjAddr: 0x35BC, symBinAddr: 0x100015588, symSize: 0x88 }
  - { offsetInCU: 0xA131, offset: 0x45DB7, size: 0x8, addend: 0x0, symName: __ZNSt3__16vectorIP4UserNS_9allocatorIS2_EEE27__invalidate_iterators_pastB7v160006EPS2_, symObjAddr: 0x3684, symBinAddr: 0x100015650, symSize: 0x14 }
  - { offsetInCU: 0xA168, offset: 0x45DEE, size: 0x8, addend: 0x0, symName: __ZNKSt3__111__wrap_iterIPKP4UserE4baseB7v160006Ev, symObjAddr: 0x3698, symBinAddr: 0x100015664, symSize: 0x18 }
  - { offsetInCU: 0xA18D, offset: 0x45E13, size: 0x8, addend: 0x0, symName: __ZNKSt3__16vectorIP4UserNS_9allocatorIS2_EEE5beginB7v160006Ev, symObjAddr: 0x36B0, symBinAddr: 0x10001567C, symSize: 0x30 }
  - { offsetInCU: 0xA1B6, offset: 0x45E3C, size: 0x8, addend: 0x0, symName: __ZNKSt3__16vectorIP4UserNS_9allocatorIS2_EEE11__make_iterB7v160006EPKS2_, symObjAddr: 0x36E0, symBinAddr: 0x1000156AC, symSize: 0x34 }
  - { offsetInCU: 0xA1EB, offset: 0x45E71, size: 0x8, addend: 0x0, symName: __ZNSt3__111__wrap_iterIPKP4UserEC1B7v160006EPKvS4_, symObjAddr: 0x3714, symBinAddr: 0x1000156E0, symSize: 0x3C }
  - { offsetInCU: 0xA231, offset: 0x45EB7, size: 0x8, addend: 0x0, symName: __ZNSt3__111__wrap_iterIPKP4UserEC2B7v160006EPKvS4_, symObjAddr: 0x3750, symBinAddr: 0x10001571C, symSize: 0x24 }
  - { offsetInCU: 0xA277, offset: 0x45EFD, size: 0x8, addend: 0x0, symName: __ZNKSt3__16vectorIP4UserNS_9allocatorIS2_EEE17__annotate_shrinkB7v160006Em, symObjAddr: 0x3774, symBinAddr: 0x100015740, symSize: 0xB4 }
  - { offsetInCU: 0xA2CF, offset: 0x45F55, size: 0x8, addend: 0x0, symName: __ZNKSt3__114__move_trivialclB7v160006IP4UserS3_Li0EEENS_4pairIPT_PT0_EES6_S6_S8_, symObjAddr: 0x39D4, symBinAddr: 0x1000159A0, symSize: 0x48 }
  - { offsetInCU: 0xA337, offset: 0x45FBD, size: 0x8, addend: 0x0, symName: __ZNSt3__14pairIPP4UserS3_EC1B7v160006ERKS3_S6_, symObjAddr: 0x3BB0, symBinAddr: 0x100015B7C, symSize: 0x3C }
  - { offsetInCU: 0xA37D, offset: 0x46003, size: 0x8, addend: 0x0, symName: __ZNSt3__14pairIPP4UserS3_EC2B7v160006ERKS3_S6_, symObjAddr: 0x3BEC, symBinAddr: 0x100015BB8, symSize: 0x34 }
  - { offsetInCU: 0xA3C3, offset: 0x46049, size: 0x8, addend: 0x0, symName: __ZNSt3__118__unwrap_iter_implIPP4UserLb1EE8__unwrapB7v160006ES3_, symObjAddr: 0x3C20, symBinAddr: 0x100015BEC, symSize: 0x24 }
  - { offsetInCU: 0xA3E6, offset: 0x4606C, size: 0x8, addend: 0x0, symName: __ZNSt3__118__unwrap_iter_implIPP4UserLb1EE8__rewrapB7v160006ES3_S3_, symObjAddr: 0x3C44, symBinAddr: 0x100015C10, symSize: 0x50 }
  - { offsetInCU: 0xA417, offset: 0x4609D, size: 0x8, addend: 0x0, symName: __ZNSt3__111__wrap_iterIPKP4UserEC2B7v160006IPS2_EERKNS0_IT_EEPNS_9enable_ifIXsr14is_convertibleIS8_S4_EE5valueEvE4typeE, symObjAddr: 0x3C94, symBinAddr: 0x100015C60, symSize: 0x40 }
  - { offsetInCU: 0xA463, offset: 0x460E9, size: 0x8, addend: 0x0, symName: __ZNSt3__16vectorIP4UserNS_9allocatorIS2_EEEC2ERKS5_, symObjAddr: 0x3CD4, symBinAddr: 0x100015CA0, symSize: 0x118 }
  - { offsetInCU: 0xA4C2, offset: 0x46148, size: 0x8, addend: 0x0, symName: __ZNSt3__116allocator_traitsINS_9allocatorIP4UserEEE37select_on_container_copy_constructionB7v160006IS4_vvEES4_RKS4_, symObjAddr: 0x3DEC, symBinAddr: 0x100015DB8, symSize: 0x10 }
  - { offsetInCU: 0xA4F6, offset: 0x4617C, size: 0x8, addend: 0x0, symName: __ZNSt3__117__compressed_pairIPP4UserNS_9allocatorIS2_EEEC1B7v160006IDnS5_EEOT_OT0_, symObjAddr: 0x3DFC, symBinAddr: 0x100015DC8, symSize: 0x3C }
  - { offsetInCU: 0xA54E, offset: 0x461D4, size: 0x8, addend: 0x0, symName: __ZNSt3__16vectorIP4UserNS_9allocatorIS2_EEE11__vallocateB7v160006Em, symObjAddr: 0x3E78, symBinAddr: 0x100015E44, symSize: 0xAC }
  - { offsetInCU: 0xA591, offset: 0x46217, size: 0x8, addend: 0x0, symName: __ZNSt3__16vectorIP4UserNS_9allocatorIS2_EEE18__construct_at_endIPS2_Li0EEEvT_S8_m, symObjAddr: 0x3F24, symBinAddr: 0x100015EF0, symSize: 0x94 }
  - { offsetInCU: 0xA605, offset: 0x4628B, size: 0x8, addend: 0x0, symName: __ZNSt3__128__exception_guard_exceptionsINS_6vectorIP4UserNS_9allocatorIS3_EEE16__destroy_vectorEE10__completeB7v160006Ev, symObjAddr: 0x3FB8, symBinAddr: 0x100015F84, symSize: 0x1C }
  - { offsetInCU: 0xA62B, offset: 0x462B1, size: 0x8, addend: 0x0, symName: __ZNSt3__128__exception_guard_exceptionsINS_6vectorIP4UserNS_9allocatorIS3_EEE16__destroy_vectorEED1B7v160006Ev, symObjAddr: 0x3FD4, symBinAddr: 0x100015FA0, symSize: 0x2C }
  - { offsetInCU: 0xA655, offset: 0x462DB, size: 0x8, addend: 0x0, symName: __ZNSt3__117__compressed_pairIPP4UserNS_9allocatorIS2_EEEC2B7v160006IDnS5_EEOT_OT0_, symObjAddr: 0x4000, symBinAddr: 0x100015FCC, symSize: 0x44 }
  - { offsetInCU: 0xA6AD, offset: 0x46333, size: 0x8, addend: 0x0, symName: __ZNSt3__122__compressed_pair_elemINS_9allocatorIP4UserEELi1ELb1EEC2B7v160006IS4_vEEOT_, symObjAddr: 0x4044, symBinAddr: 0x100016010, symSize: 0x18 }
  - { offsetInCU: 0xA6EF, offset: 0x46375, size: 0x8, addend: 0x0, symName: __ZNSt3__128__exception_guard_exceptionsINS_6vectorIP4UserNS_9allocatorIS3_EEE16__destroy_vectorEEC1B7v160006ES7_, symObjAddr: 0x405C, symBinAddr: 0x100016028, symSize: 0x34 }
  - { offsetInCU: 0xA727, offset: 0x463AD, size: 0x8, addend: 0x0, symName: __ZNSt3__128__exception_guard_exceptionsINS_6vectorIP4UserNS_9allocatorIS3_EEE16__destroy_vectorEEC2B7v160006ES7_, symObjAddr: 0x4090, symBinAddr: 0x10001605C, symSize: 0x24 }
  - { offsetInCU: 0xA75F, offset: 0x463E5, size: 0x8, addend: 0x0, symName: __ZNSt3__129_AllocatorDestroyRangeReverseINS_9allocatorIP4UserEEPS3_EC1B7v160006ERS4_RS5_S8_, symObjAddr: 0x41FC, symBinAddr: 0x1000161C8, symSize: 0x44 }
  - { offsetInCU: 0xA7B6, offset: 0x4643C, size: 0x8, addend: 0x0, symName: __ZNSt3__116allocator_traitsINS_9allocatorIP4UserEEE9constructB7v160006IS3_JRS3_EvEEvRS4_PT_DpOT0_, symObjAddr: 0x4240, symBinAddr: 0x10001620C, symSize: 0x34 }
  - { offsetInCU: 0xA80D, offset: 0x46493, size: 0x8, addend: 0x0, symName: __ZNSt3__128__exception_guard_exceptionsINS_29_AllocatorDestroyRangeReverseINS_9allocatorIP4UserEEPS4_EEE10__completeB7v160006Ev, symObjAddr: 0x4274, symBinAddr: 0x100016240, symSize: 0x1C }
  - { offsetInCU: 0xA833, offset: 0x464B9, size: 0x8, addend: 0x0, symName: __ZNSt3__128__exception_guard_exceptionsINS_29_AllocatorDestroyRangeReverseINS_9allocatorIP4UserEEPS4_EEED1B7v160006Ev, symObjAddr: 0x4290, symBinAddr: 0x10001625C, symSize: 0x2C }
  - { offsetInCU: 0xA85D, offset: 0x464E3, size: 0x8, addend: 0x0, symName: __ZNSt3__128__exception_guard_exceptionsINS_29_AllocatorDestroyRangeReverseINS_9allocatorIP4UserEEPS4_EEEC1B7v160006ES7_, symObjAddr: 0x42BC, symBinAddr: 0x100016288, symSize: 0x34 }
  - { offsetInCU: 0xA896, offset: 0x4651C, size: 0x8, addend: 0x0, symName: __ZNSt3__128__exception_guard_exceptionsINS_29_AllocatorDestroyRangeReverseINS_9allocatorIP4UserEEPS4_EEEC2B7v160006ES7_, symObjAddr: 0x42F0, symBinAddr: 0x1000162BC, symSize: 0x30 }
  - { offsetInCU: 0xA8CF, offset: 0x46555, size: 0x8, addend: 0x0, symName: __ZNSt3__129_AllocatorDestroyRangeReverseINS_9allocatorIP4UserEEPS3_EC2B7v160006ERS4_RS5_S8_, symObjAddr: 0x4320, symBinAddr: 0x1000162EC, symSize: 0x38 }
  - { offsetInCU: 0xA926, offset: 0x465AC, size: 0x8, addend: 0x0, symName: __ZNSt3__19allocatorIP4UserE9constructB7v160006IS2_JRS2_EEEvPT_DpOT0_, symObjAddr: 0x4358, symBinAddr: 0x100016324, symSize: 0x28 }
  - { offsetInCU: 0xA97C, offset: 0x46602, size: 0x8, addend: 0x0, symName: __ZNSt3__128__exception_guard_exceptionsINS_29_AllocatorDestroyRangeReverseINS_9allocatorIP4UserEEPS4_EEED2B7v160006Ev, symObjAddr: 0x4380, symBinAddr: 0x10001634C, symSize: 0x48 }
  - { offsetInCU: 0xA9A6, offset: 0x4662C, size: 0x8, addend: 0x0, symName: __ZNKSt3__129_AllocatorDestroyRangeReverseINS_9allocatorIP4UserEEPS3_EclB7v160006Ev, symObjAddr: 0x43C8, symBinAddr: 0x100016394, symSize: 0x68 }
  - { offsetInCU: 0xA9CC, offset: 0x46652, size: 0x8, addend: 0x0, symName: __ZNSt3__128__exception_guard_exceptionsINS_6vectorIP4UserNS_9allocatorIS3_EEE16__destroy_vectorEED2B7v160006Ev, symObjAddr: 0x44A0, symBinAddr: 0x10001646C, symSize: 0x48 }
  - { offsetInCU: 0x9994, offset: 0x500A0, size: 0x8, addend: 0x0, symName: __ZN8Commands4NickERNSt3__13mapIi4UserNS0_4lessIiEENS0_9allocatorINS0_4pairIKiS2_EEEEEEi, symObjAddr: 0x0, symBinAddr: 0x1000164B4, symSize: 0xAB8 }
  - { offsetInCU: 0x9A50, offset: 0x5015C, size: 0x8, addend: 0x0, symName: __ZNKSt3__114__map_iteratorINS_15__tree_iteratorINS_12__value_typeIi4UserEEPNS_11__tree_nodeIS4_PvEElEEEptB7v160006Ev, symObjAddr: 0xD34, symBinAddr: 0x100016F6C, symSize: 0x2C }
  - { offsetInCU: 0x9A7B, offset: 0x50187, size: 0x8, addend: 0x0, symName: __ZNSt3__114pointer_traitsIPNS_4pairIKi4UserEEE10pointer_toB7v160006ERS4_, symObjAddr: 0x172C, symBinAddr: 0x100016F98, symSize: 0x14 }
  - { offsetInCU: 0x53EE, offset: 0x555CE, size: 0x8, addend: 0x0, symName: __ZNSt3__1neB7v160006IcNS_11char_traitsIcEENS_9allocatorIcEEEEbRKNS_12basic_stringIT_T0_T1_EESB_, symObjAddr: 0x75C, symBinAddr: 0x10001732C, symSize: 0x34 }
  - { offsetInCU: 0x7C20, offset: 0x57E00, size: 0x8, addend: 0x0, symName: __ZN8Commands4PassER4UseriNSt3__112basic_stringIcNS2_11char_traitsIcEENS2_9allocatorIcEEEE, symObjAddr: 0x0, symBinAddr: 0x100016FAC, symSize: 0x350 }
  - { offsetInCU: 0x7CA7, offset: 0x57E87, size: 0x8, addend: 0x0, symName: __ZNKSt3__112basic_stringIcNS_11char_traitsIcEENS_9allocatorIcEEE5emptyB7v160006Ev, symObjAddr: 0x4C8, symBinAddr: 0x1000172FC, symSize: 0x30 }
  - { offsetInCU: 0x5626, offset: 0x5D4D7, size: 0x8, addend: 0x0, symName: __ZNSt3__1miB7v160006IPKNS_12basic_stringIcNS_11char_traitsIcEENS_9allocatorIcEEEES8_EENS_11__wrap_iterIT_E15difference_typeERKSB_RKNS9_IT0_EE, symObjAddr: 0x109C, symBinAddr: 0x100017B90, symSize: 0x48 }
  - { offsetInCU: 0x5672, offset: 0x5D523, size: 0x8, addend: 0x0, symName: __ZNSt3__14moveB7v160006IPNS_12basic_stringIcNS_11char_traitsIcEENS_9allocatorIcEEEES7_EET0_T_S9_S8_, symObjAddr: 0x1198, symBinAddr: 0x100017C8C, symSize: 0x40 }
  - { offsetInCU: 0x56CC, offset: 0x5D57D, size: 0x8, addend: 0x0, symName: __ZNSt3__16__moveB7v160006INS_17_ClassicAlgPolicyEPNS_12basic_stringIcNS_11char_traitsIcEENS_9allocatorIcEEEES8_S8_EENS_4pairIT0_T2_EESA_T1_SB_, symObjAddr: 0x15F4, symBinAddr: 0x100017DBC, symSize: 0x44 }
  - { offsetInCU: 0x5738, offset: 0x5D5E9, size: 0x8, addend: 0x0, symName: __ZNSt3__123__dispatch_copy_or_moveB7v160006INS_17_ClassicAlgPolicyENS_11__move_loopIS1_EENS_14__move_trivialEPNS_12basic_stringIcNS_11char_traitsIcEENS_9allocatorIcEEEESB_SB_EENS_4pairIT2_T4_EESD_T3_SE_, symObjAddr: 0x1638, symBinAddr: 0x100017E00, symSize: 0x70 }
  - { offsetInCU: 0x57B6, offset: 0x5D667, size: 0x8, addend: 0x0, symName: __ZNSt3__121__unwrap_and_dispatchB7v160006INS_11__move_loopINS_17_ClassicAlgPolicyEEEPNS_12basic_stringIcNS_11char_traitsIcEENS_9allocatorIcEEEESA_SA_Li0EEENS_4pairIT0_T2_EESC_T1_SD_, symObjAddr: 0x16A8, symBinAddr: 0x100017E70, symSize: 0xB4 }
  - { offsetInCU: 0x5844, offset: 0x5D6F5, size: 0x8, addend: 0x0, symName: __ZNSt3__121__unwrap_and_dispatchB7v160006INS_10__overloadINS_11__move_loopINS_17_ClassicAlgPolicyEEENS_14__move_trivialEEEPNS_12basic_stringIcNS_11char_traitsIcEENS_9allocatorIcEEEESD_SD_Li0EEENS_4pairIT0_T2_EESF_T1_SG_, symObjAddr: 0x175C, symBinAddr: 0x100017F24, symSize: 0xB4 }
  - { offsetInCU: 0x58D2, offset: 0x5D783, size: 0x8, addend: 0x0, symName: __ZNSt3__114__unwrap_rangeB7v160006IPNS_12basic_stringIcNS_11char_traitsIcEENS_9allocatorIcEEEES7_EENS_4pairIT0_S9_EET_SB_, symObjAddr: 0x1810, symBinAddr: 0x100017FD8, symSize: 0x60 }
  - { offsetInCU: 0x5A1D, offset: 0x5D8CE, size: 0x8, addend: 0x0, symName: __ZNSt3__113__unwrap_iterB7v160006IPNS_12basic_stringIcNS_11char_traitsIcEENS_9allocatorIcEEEENS_18__unwrap_iter_implIS7_Lb1EEELi0EEEDTclsrT0_8__unwrapclsr3stdE7declvalIT_EEEESB_, symObjAddr: 0x1900, symBinAddr: 0x1000180C8, symSize: 0x24 }
  - { offsetInCU: 0x5A61, offset: 0x5D912, size: 0x8, addend: 0x0, symName: __ZNSt3__19make_pairB7v160006IPNS_12basic_stringIcNS_11char_traitsIcEENS_9allocatorIcEEEES7_EENS_4pairINS_18__unwrap_ref_decayIT_E4typeENS9_IT0_E4typeEEEOSA_OSD_, symObjAddr: 0x1924, symBinAddr: 0x1000180EC, symSize: 0x38 }
  - { offsetInCU: 0x5AB0, offset: 0x5D961, size: 0x8, addend: 0x0, symName: __ZNSt3__114__rewrap_rangeB7v160006IPNS_12basic_stringIcNS_11char_traitsIcEENS_9allocatorIcEEEES7_EET_S8_T0_, symObjAddr: 0x195C, symBinAddr: 0x100018124, symSize: 0x2C }
  - { offsetInCU: 0x5AFC, offset: 0x5D9AD, size: 0x8, addend: 0x0, symName: __ZNSt3__113__rewrap_iterB7v160006IPNS_12basic_stringIcNS_11char_traitsIcEENS_9allocatorIcEEEES7_NS_18__unwrap_iter_implIS7_Lb1EEEEET_SA_T0_, symObjAddr: 0x1988, symBinAddr: 0x100018150, symSize: 0x50 }
  - { offsetInCU: 0x8407, offset: 0x602B8, size: 0x8, addend: 0x0, symName: "__ZN8Commands5UsrER4Useri", symObjAddr: 0x0, symBinAddr: 0x100017360, symSize: 0x70C }
  - { offsetInCU: 0x8484, offset: 0x60335, size: 0x8, addend: 0x0, symName: __ZNSt3__16vectorINS_12basic_stringIcNS_11char_traitsIcEENS_9allocatorIcEEEENS4_IS6_EEE5eraseB7v160006ENS_11__wrap_iterIPKS6_EE, symObjAddr: 0x7D4, symBinAddr: 0x100017A6C, symSize: 0xBC }
  - { offsetInCU: 0x84E3, offset: 0x60394, size: 0x8, addend: 0x0, symName: __ZNSt3__111__wrap_iterIPKNS_12basic_stringIcNS_11char_traitsIcEENS_9allocatorIcEEEEEC1B7v160006IPS6_EERKNS0_IT_EEPNS_9enable_ifIXsr14is_convertibleISC_S8_EE5valueEvE4typeE, symObjAddr: 0x8C0, symBinAddr: 0x100017B28, symSize: 0x3C }
  - { offsetInCU: 0x852F, offset: 0x603E0, size: 0x8, addend: 0x0, symName: __ZNSt3__16vectorINS_12basic_stringIcNS_11char_traitsIcEENS_9allocatorIcEEEENS4_IS6_EEEixB7v160006Em, symObjAddr: 0x8FC, symBinAddr: 0x100017B64, symSize: 0x2C }
  - { offsetInCU: 0x8566, offset: 0x60417, size: 0x8, addend: 0x0, symName: __ZNKSt3__16vectorINS_12basic_stringIcNS_11char_traitsIcEENS_9allocatorIcEEEENS4_IS6_EEE6cbeginB7v160006Ev, symObjAddr: 0x10E4, symBinAddr: 0x100017BD8, symSize: 0x2C }
  - { offsetInCU: 0x858C, offset: 0x6043D, size: 0x8, addend: 0x0, symName: __ZNSt3__16vectorINS_12basic_stringIcNS_11char_traitsIcEENS_9allocatorIcEEEENS4_IS6_EEE17__destruct_at_endB7v160006EPS6_, symObjAddr: 0x1110, symBinAddr: 0x100017C04, symSize: 0x88 }
  - { offsetInCU: 0x85D0, offset: 0x60481, size: 0x8, addend: 0x0, symName: __ZNSt3__16vectorINS_12basic_stringIcNS_11char_traitsIcEENS_9allocatorIcEEEENS4_IS6_EEE27__invalidate_iterators_pastB7v160006EPS6_, symObjAddr: 0x11E4, symBinAddr: 0x100017CCC, symSize: 0x14 }
  - { offsetInCU: 0x8607, offset: 0x604B8, size: 0x8, addend: 0x0, symName: __ZNKSt3__111__wrap_iterIPKNS_12basic_stringIcNS_11char_traitsIcEENS_9allocatorIcEEEEE4baseB7v160006Ev, symObjAddr: 0x11F8, symBinAddr: 0x100017CE0, symSize: 0x18 }
  - { offsetInCU: 0x862D, offset: 0x604DE, size: 0x8, addend: 0x0, symName: __ZNKSt3__16vectorINS_12basic_stringIcNS_11char_traitsIcEENS_9allocatorIcEEEENS4_IS6_EEE5beginB7v160006Ev, symObjAddr: 0x1210, symBinAddr: 0x100017CF8, symSize: 0x30 }
  - { offsetInCU: 0x8655, offset: 0x60506, size: 0x8, addend: 0x0, symName: __ZNKSt3__16vectorINS_12basic_stringIcNS_11char_traitsIcEENS_9allocatorIcEEEENS4_IS6_EEE11__make_iterB7v160006EPKS6_, symObjAddr: 0x1240, symBinAddr: 0x100017D28, symSize: 0x34 }
  - { offsetInCU: 0x868A, offset: 0x6053B, size: 0x8, addend: 0x0, symName: __ZNSt3__111__wrap_iterIPKNS_12basic_stringIcNS_11char_traitsIcEENS_9allocatorIcEEEEEC1B7v160006EPKvS8_, symObjAddr: 0x1274, symBinAddr: 0x100017D5C, symSize: 0x3C }
  - { offsetInCU: 0x86D0, offset: 0x60581, size: 0x8, addend: 0x0, symName: __ZNSt3__111__wrap_iterIPKNS_12basic_stringIcNS_11char_traitsIcEENS_9allocatorIcEEEEEC2B7v160006EPKvS8_, symObjAddr: 0x12B0, symBinAddr: 0x100017D98, symSize: 0x24 }
  - { offsetInCU: 0x8739, offset: 0x605EA, size: 0x8, addend: 0x0, symName: __ZNKSt3__111__move_loopINS_17_ClassicAlgPolicyEEclB7v160006IPNS_12basic_stringIcNS_11char_traitsIcEENS_9allocatorIcEEEESA_SA_EENS_4pairIT_T1_EESC_T0_SD_, symObjAddr: 0x1870, symBinAddr: 0x100018038, symSize: 0x90 }
  - { offsetInCU: 0x87AE, offset: 0x6065F, size: 0x8, addend: 0x0, symName: __ZNSt3__18_IterOpsINS_17_ClassicAlgPolicyEE11__iter_moveB7v160006IRPNS_12basic_stringIcNS_11char_traitsIcEENS_9allocatorIcEEEEEENS_9enable_ifIXsr12is_referenceIDTdeclsr3stdE7declvalIRT_EEEEE5valueEDTclsr3stdE4movedeclsr3stdE7declvalISE_EEEEE4typeEOSD_, symObjAddr: 0x19D8, symBinAddr: 0x1000181A0, symSize: 0x28 }
  - { offsetInCU: 0x87DA, offset: 0x6068B, size: 0x8, addend: 0x0, symName: __ZNSt3__18_IterOpsINS_17_ClassicAlgPolicyEE25__validate_iter_referenceB7v160006IRPNS_12basic_stringIcNS_11char_traitsIcEENS_9allocatorIcEEEEEEvv, symObjAddr: 0x1A00, symBinAddr: 0x1000181C8, symSize: 0x4 }
  - { offsetInCU: 0x87F8, offset: 0x606A9, size: 0x8, addend: 0x0, symName: __ZNSt3__118__unwrap_iter_implIPNS_12basic_stringIcNS_11char_traitsIcEENS_9allocatorIcEEEELb1EE8__unwrapB7v160006ES7_, symObjAddr: 0x1A04, symBinAddr: 0x1000181CC, symSize: 0x24 }
  - { offsetInCU: 0x881B, offset: 0x606CC, size: 0x8, addend: 0x0, symName: __ZNSt3__14pairIPNS_12basic_stringIcNS_11char_traitsIcEENS_9allocatorIcEEEES7_EC1B7v160006ERKS7_SA_, symObjAddr: 0x1A28, symBinAddr: 0x1000181F0, symSize: 0x3C }
  - { offsetInCU: 0x8861, offset: 0x60712, size: 0x8, addend: 0x0, symName: __ZNSt3__14pairIPNS_12basic_stringIcNS_11char_traitsIcEENS_9allocatorIcEEEES7_EC2B7v160006ERKS7_SA_, symObjAddr: 0x1A64, symBinAddr: 0x10001822C, symSize: 0x34 }
  - { offsetInCU: 0x88A7, offset: 0x60758, size: 0x8, addend: 0x0, symName: __ZNSt3__118__unwrap_iter_implIPNS_12basic_stringIcNS_11char_traitsIcEENS_9allocatorIcEEEELb1EE8__rewrapB7v160006ES7_S7_, symObjAddr: 0x1A98, symBinAddr: 0x100018260, symSize: 0x58 }
  - { offsetInCU: 0x88D8, offset: 0x60789, size: 0x8, addend: 0x0, symName: __ZNSt3__111__wrap_iterIPKNS_12basic_stringIcNS_11char_traitsIcEENS_9allocatorIcEEEEEC2B7v160006IPS6_EERKNS0_IT_EEPNS_9enable_ifIXsr14is_convertibleISC_S8_EE5valueEvE4typeE, symObjAddr: 0x1AF0, symBinAddr: 0x1000182B8, symSize: 0x40 }
  - { offsetInCU: 0x8924, offset: 0x607D5, size: 0x8, addend: 0x0, symName: __ZNKSt3__111__wrap_iterIPNS_12basic_stringIcNS_11char_traitsIcEENS_9allocatorIcEEEEE4baseB7v160006Ev, symObjAddr: 0x1B30, symBinAddr: 0x1000182F8, symSize: 0x18 }
  - { offsetInCU: 0x86E0, offset: 0x68F0C, size: 0x8, addend: 0x0, symName: __ZN8Commands4QuitER4UserRNSt3__16vectorI7ChannelNS2_9allocatorIS4_EEEEi, symObjAddr: 0x0, symBinAddr: 0x100018310, symSize: 0x104 }
  - { offsetInCU: 0x7BC8, offset: 0x70B39, size: 0x8, addend: 0x0, symName: __ZN8Commands4PingER4Useri, symObjAddr: 0x0, symBinAddr: 0x100018414, symSize: 0x1AC }
  - { offsetInCU: 0x70FF, offset: 0x77C9E, size: 0x8, addend: 0x0, symName: __ZNSt3__1neB7v160006IPNS_12basic_stringIcNS_11char_traitsIcEENS_9allocatorIcEEEEEEbRKNS_11__wrap_iterIT_EESC_, symObjAddr: 0x59C, symBinAddr: 0x100018AC8, symSize: 0x34 }
  - { offsetInCU: 0x7142, offset: 0x77CE1, size: 0x8, addend: 0x0, symName: __ZNSt3__1eqB7v160006IPNS_12basic_stringIcNS_11char_traitsIcEENS_9allocatorIcEEEEEEbRKNS_11__wrap_iterIT_EESC_, symObjAddr: 0x15A8, symBinAddr: 0x100018B68, symSize: 0x48 }
  - { offsetInCU: 0x7185, offset: 0x77D24, size: 0x8, addend: 0x0, symName: __ZNSt3__119__allocate_at_leastB7v160006INS_9allocatorI7ChannelEEEENS_19__allocation_resultINS_16allocator_traitsIT_E7pointerEEERS6_m, symObjAddr: 0x453C, symBinAddr: 0x100019468, symSize: 0x40 }
  - { offsetInCU: 0x71C8, offset: 0x77D67, size: 0x8, addend: 0x0, symName: __ZNSt3__142__uninitialized_allocator_move_if_noexceptB7v160006INS_9allocatorI7ChannelEENS_16reverse_iteratorIPS2_EES6_S6_EET2_RT_T0_T1_S7_, symObjAddr: 0x4814, symBinAddr: 0x100019650, symSize: 0x134 }
  - { offsetInCU: 0x7268, offset: 0x77E07, size: 0x8, addend: 0x0, symName: __ZNSt3__14swapB7v160006IP7ChannelEEvRT_S4_, symObjAddr: 0x4994, symBinAddr: 0x1000197D0, symSize: 0x3C }
  - { offsetInCU: 0x72B9, offset: 0x77E58, size: 0x8, addend: 0x0, symName: __ZNSt3__125__debug_db_invalidate_allB7v160006INS_6vectorI7ChannelNS_9allocatorIS2_EEEEEEvPT_, symObjAddr: 0x4A98, symBinAddr: 0x1000198D4, symSize: 0x10 }
  - { offsetInCU: 0x72EA, offset: 0x77E89, size: 0x8, addend: 0x0, symName: __ZNSt3__122__make_exception_guardB7v160006INS_29_AllocatorDestroyRangeReverseINS_9allocatorI7ChannelEENS_16reverse_iteratorIPS3_EEEEEENS_28__exception_guard_exceptionsIT_EESA_, symObjAddr: 0x4AF0, symBinAddr: 0x1000198E4, symSize: 0x4C }
  - { offsetInCU: 0x7320, offset: 0x77EBF, size: 0x8, addend: 0x0, symName: __ZNSt3__1neB7v160006IP7ChannelS2_EEbRKNS_16reverse_iteratorIT_EERKNS3_IT0_EE, symObjAddr: 0x4B80, symBinAddr: 0x100019974, symSize: 0x48 }
  - { offsetInCU: 0x736C, offset: 0x77F0B, size: 0x8, addend: 0x0, symName: __ZNSt3__112__to_addressB7v160006INS_16reverse_iteratorIP7ChannelEEvEENS_5decayIDTclsr19__to_address_helperIT_EE6__callclsr3stdE7declvalIRKS6_EEEEE4typeES8_, symObjAddr: 0x4BFC, symBinAddr: 0x1000199F0, symSize: 0x24 }
  - { offsetInCU: 0x73CB, offset: 0x77F6A, size: 0x8, addend: 0x0, symName: __ZNSt3__119__allocator_destroyB7v160006INS_9allocatorI7ChannelEENS_16reverse_iteratorINS4_IPS2_EEEES7_EEvRT_T0_T1_, symObjAddr: 0x4EE8, symBinAddr: 0x100019CDC, symSize: 0x70 }
  - { offsetInCU: 0x7430, offset: 0x77FCF, size: 0x8, addend: 0x0, symName: __ZNSt3__1neB7v160006INS_16reverse_iteratorIP7ChannelEES4_EEbRKNS1_IT_EERKNS1_IT0_EE, symObjAddr: 0x4F94, symBinAddr: 0x100019D88, symSize: 0x60 }
  - { offsetInCU: 0x747C, offset: 0x7801B, size: 0x8, addend: 0x0, symName: __ZNSt3__112__to_addressB7v160006INS_16reverse_iteratorINS1_IP7ChannelEEEEvEENS_5decayIDTclsr19__to_address_helperIT_EE6__callclsr3stdE7declvalIRKS7_EEEEE4typeES9_, symObjAddr: 0x5020, symBinAddr: 0x100019DE8, symSize: 0x24 }
  - { offsetInCU: 0x7CAD, offset: 0x7884C, size: 0x8, addend: 0x0, symName: __ZNSt3__16vectorI7ChannelNS_9allocatorIS1_EEE26__swap_out_circular_bufferERNS_14__split_bufferIS1_RS3_EE, symObjAddr: 0x4090, symBinAddr: 0x1000190DC, symSize: 0x118 }
  - { offsetInCU: 0x9EFD, offset: 0x7AA9C, size: 0x8, addend: 0x0, symName: __ZN8Commands4JoinER4UserRNSt3__16vectorI7ChannelNS2_9allocatorIS4_EEEEi, symObjAddr: 0x0, symBinAddr: 0x1000185C0, symSize: 0x508 }
  - { offsetInCU: 0x9FA1, offset: 0x7AB40, size: 0x8, addend: 0x0, symName: __ZNSt3__16vectorI7ChannelNS_9allocatorIS1_EEE9push_backB7v160006EOS1_, symObjAddr: 0xADC, symBinAddr: 0x100018AFC, symSize: 0x6C }
  - { offsetInCU: 0x9FE8, offset: 0x7AB87, size: 0x8, addend: 0x0, symName: __ZNSt3__16vectorI7ChannelNS_9allocatorIS1_EEE9__end_capB7v160006Ev, symObjAddr: 0x2C38, symBinAddr: 0x100018BB0, symSize: 0x28 }
  - { offsetInCU: 0xA013, offset: 0x7ABB2, size: 0x8, addend: 0x0, symName: __ZNSt3__16vectorI7ChannelNS_9allocatorIS1_EEE22__construct_one_at_endB7v160006IJS1_EEEvDpOT_, symObjAddr: 0x2C60, symBinAddr: 0x100018BD8, symSize: 0x98 }
  - { offsetInCU: 0xA061, offset: 0x7AC00, size: 0x8, addend: 0x0, symName: __ZNSt3__16vectorI7ChannelNS_9allocatorIS1_EEE21__push_back_slow_pathIS1_EEvOT_, symObjAddr: 0x2CF8, symBinAddr: 0x100018C70, symSize: 0xE0 }
  - { offsetInCU: 0xA0C0, offset: 0x7AC5F, size: 0x8, addend: 0x0, symName: __ZNSt3__117__compressed_pairIP7ChannelNS_9allocatorIS1_EEE5firstB7v160006Ev, symObjAddr: 0x2DD8, symBinAddr: 0x100018D50, symSize: 0x24 }
  - { offsetInCU: 0xA0E6, offset: 0x7AC85, size: 0x8, addend: 0x0, symName: __ZNSt3__122__compressed_pair_elemIP7ChannelLi0ELb0EE5__getB7v160006Ev, symObjAddr: 0x2DFC, symBinAddr: 0x100018D74, symSize: 0x14 }
  - { offsetInCU: 0xA125, offset: 0x7ACC4, size: 0x8, addend: 0x0, symName: __ZNSt3__16vectorI7ChannelNS_9allocatorIS1_EEE21_ConstructTransactionC1B7v160006ERS4_m, symObjAddr: 0x2E10, symBinAddr: 0x100018D88, symSize: 0x3C }
  - { offsetInCU: 0xA16D, offset: 0x7AD0C, size: 0x8, addend: 0x0, symName: __ZNSt3__116allocator_traitsINS_9allocatorI7ChannelEEE9constructB7v160006IS2_JS2_EvEEvRS3_PT_DpOT0_, symObjAddr: 0x2E4C, symBinAddr: 0x100018DC4, symSize: 0x34 }
  - { offsetInCU: 0xA1C4, offset: 0x7AD63, size: 0x8, addend: 0x0, symName: __ZNSt3__16vectorI7ChannelNS_9allocatorIS1_EEE21_ConstructTransactionD1B7v160006Ev, symObjAddr: 0x2EA8, symBinAddr: 0x100018DF8, symSize: 0x2C }
  - { offsetInCU: 0xA1EE, offset: 0x7AD8D, size: 0x8, addend: 0x0, symName: __ZNSt3__16vectorI7ChannelNS_9allocatorIS1_EEE21_ConstructTransactionC2B7v160006ERS4_m, symObjAddr: 0x2ED4, symBinAddr: 0x100018E24, symSize: 0x4C }
  - { offsetInCU: 0xA236, offset: 0x7ADD5, size: 0x8, addend: 0x0, symName: __ZNSt3__19allocatorI7ChannelE9constructB7v160006IS1_JS1_EEEvPT_DpOT0_, symObjAddr: 0x2F20, symBinAddr: 0x100018E70, symSize: 0x30 }
  - { offsetInCU: 0xA28C, offset: 0x7AE2B, size: 0x8, addend: 0x0, symName: __ZN7ChannelC1ERKS_, symObjAddr: 0x2F50, symBinAddr: 0x100018EA0, symSize: 0x34 }
  - { offsetInCU: 0xA2C1, offset: 0x7AE60, size: 0x8, addend: 0x0, symName: __ZN7ChannelC2ERKS_, symObjAddr: 0x2F84, symBinAddr: 0x100018ED4, symSize: 0xF0 }
  - { offsetInCU: 0xA31E, offset: 0x7AEBD, size: 0x8, addend: 0x0, symName: __ZNSt3__16vectorI7ChannelNS_9allocatorIS1_EEE21_ConstructTransactionD2B7v160006Ev, symObjAddr: 0x3F50, symBinAddr: 0x100018FC4, symSize: 0x20 }
  - { offsetInCU: 0xA347, offset: 0x7AEE6, size: 0x8, addend: 0x0, symName: __ZNKSt3__16vectorI7ChannelNS_9allocatorIS1_EEE11__recommendB7v160006Em, symObjAddr: 0x3F70, symBinAddr: 0x100018FE4, symSize: 0xB4 }
  - { offsetInCU: 0xA39D, offset: 0x7AF3C, size: 0x8, addend: 0x0, symName: __ZNSt3__114__split_bufferI7ChannelRNS_9allocatorIS1_EEEC1EmmS4_, symObjAddr: 0x404C, symBinAddr: 0x100019098, symSize: 0x44 }
  - { offsetInCU: 0xA3F3, offset: 0x7AF92, size: 0x8, addend: 0x0, symName: __ZNSt3__114__split_bufferI7ChannelRNS_9allocatorIS1_EEED1Ev, symObjAddr: 0x41A8, symBinAddr: 0x1000191F4, symSize: 0x2C }
  - { offsetInCU: 0xA41E, offset: 0x7AFBD, size: 0x8, addend: 0x0, symName: __ZNKSt3__16vectorI7ChannelNS_9allocatorIS1_EEE8max_sizeEv, symObjAddr: 0x41D4, symBinAddr: 0x100019220, symSize: 0x74 }
  - { offsetInCU: 0xA447, offset: 0x7AFE6, size: 0x8, addend: 0x0, symName: __ZNKSt3__16vectorI7ChannelNS_9allocatorIS1_EEE20__throw_length_errorB7v160006Ev, symObjAddr: 0x4248, symBinAddr: 0x100019294, symSize: 0x1C }
  - { offsetInCU: 0xA477, offset: 0x7B016, size: 0x8, addend: 0x0, symName: __ZNSt3__116allocator_traitsINS_9allocatorI7ChannelEEE8max_sizeB7v160006IS3_vEEmRKS3_, symObjAddr: 0x42D0, symBinAddr: 0x1000192B0, symSize: 0x24 }
  - { offsetInCU: 0xA4A5, offset: 0x7B044, size: 0x8, addend: 0x0, symName: __ZNKSt3__16vectorI7ChannelNS_9allocatorIS1_EEE7__allocB7v160006Ev, symObjAddr: 0x42F4, symBinAddr: 0x1000192D4, symSize: 0x28 }
  - { offsetInCU: 0xA4CB, offset: 0x7B06A, size: 0x8, addend: 0x0, symName: __ZNKSt3__19allocatorI7ChannelE8max_sizeB7v160006Ev, symObjAddr: 0x431C, symBinAddr: 0x1000192FC, symSize: 0x18 }
  - { offsetInCU: 0xA4F1, offset: 0x7B090, size: 0x8, addend: 0x0, symName: __ZNKSt3__117__compressed_pairIP7ChannelNS_9allocatorIS1_EEE6secondB7v160006Ev, symObjAddr: 0x4334, symBinAddr: 0x100019314, symSize: 0x24 }
  - { offsetInCU: 0xA517, offset: 0x7B0B6, size: 0x8, addend: 0x0, symName: __ZNKSt3__122__compressed_pair_elemINS_9allocatorI7ChannelEELi1ELb1EE5__getB7v160006Ev, symObjAddr: 0x4358, symBinAddr: 0x100019338, symSize: 0x14 }
  - { offsetInCU: 0xA53D, offset: 0x7B0DC, size: 0x8, addend: 0x0, symName: __ZNSt3__114__split_bufferI7ChannelRNS_9allocatorIS1_EEEC2EmmS4_, symObjAddr: 0x4420, symBinAddr: 0x10001934C, symSize: 0xE0 }
  - { offsetInCU: 0xA5B0, offset: 0x7B14F, size: 0x8, addend: 0x0, symName: __ZNSt3__117__compressed_pairIP7ChannelRNS_9allocatorIS1_EEEC1B7v160006IDnS5_EEOT_OT0_, symObjAddr: 0x4500, symBinAddr: 0x10001942C, symSize: 0x3C }
  - { offsetInCU: 0xA608, offset: 0x7B1A7, size: 0x8, addend: 0x0, symName: __ZNSt3__114__split_bufferI7ChannelRNS_9allocatorIS1_EEE7__allocB7v160006Ev, symObjAddr: 0x457C, symBinAddr: 0x1000194A8, symSize: 0x28 }
  - { offsetInCU: 0xA62E, offset: 0x7B1CD, size: 0x8, addend: 0x0, symName: __ZNSt3__114__split_bufferI7ChannelRNS_9allocatorIS1_EEE9__end_capB7v160006Ev, symObjAddr: 0x45A4, symBinAddr: 0x1000194D0, symSize: 0x28 }
  - { offsetInCU: 0xA654, offset: 0x7B1F3, size: 0x8, addend: 0x0, symName: __ZNSt3__117__compressed_pairIP7ChannelRNS_9allocatorIS1_EEEC2B7v160006IDnS5_EEOT_OT0_, symObjAddr: 0x45CC, symBinAddr: 0x1000194F8, symSize: 0x48 }
  - { offsetInCU: 0xA6AC, offset: 0x7B24B, size: 0x8, addend: 0x0, symName: __ZNSt3__122__compressed_pair_elemIRNS_9allocatorI7ChannelEELi1ELb0EEC2B7v160006IS4_vEEOT_, symObjAddr: 0x4630, symBinAddr: 0x100019540, symSize: 0x20 }
  - { offsetInCU: 0xA6EE, offset: 0x7B28D, size: 0x8, addend: 0x0, symName: __ZNSt3__19allocatorI7ChannelE8allocateB7v160006Em, symObjAddr: 0x4650, symBinAddr: 0x100019560, symSize: 0x8C }
  - { offsetInCU: 0xA722, offset: 0x7B2C1, size: 0x8, addend: 0x0, symName: __ZNSt3__117__compressed_pairIP7ChannelRNS_9allocatorIS1_EEE6secondB7v160006Ev, symObjAddr: 0x46DC, symBinAddr: 0x1000195EC, symSize: 0x28 }
  - { offsetInCU: 0xA748, offset: 0x7B2E7, size: 0x8, addend: 0x0, symName: __ZNSt3__122__compressed_pair_elemIRNS_9allocatorI7ChannelEELi1ELb0EE5__getB7v160006Ev, symObjAddr: 0x4704, symBinAddr: 0x100019614, symSize: 0x18 }
  - { offsetInCU: 0xA76E, offset: 0x7B30D, size: 0x8, addend: 0x0, symName: __ZNSt3__117__compressed_pairIP7ChannelRNS_9allocatorIS1_EEE5firstB7v160006Ev, symObjAddr: 0x471C, symBinAddr: 0x10001962C, symSize: 0x24 }
  - { offsetInCU: 0xA794, offset: 0x7B333, size: 0x8, addend: 0x0, symName: __ZNSt3__116reverse_iteratorIP7ChannelEC1B7v160006ES2_, symObjAddr: 0x4948, symBinAddr: 0x100019784, symSize: 0x34 }
  - { offsetInCU: 0xA7CC, offset: 0x7B36B, size: 0x8, addend: 0x0, symName: __ZNKSt3__116reverse_iteratorIP7ChannelE4baseB7v160006Ev, symObjAddr: 0x497C, symBinAddr: 0x1000197B8, symSize: 0x18 }
  - { offsetInCU: 0xA7F2, offset: 0x7B391, size: 0x8, addend: 0x0, symName: __ZNKSt3__16vectorI7ChannelNS_9allocatorIS1_EEE14__annotate_newB7v160006Em, symObjAddr: 0x49D0, symBinAddr: 0x10001980C, symSize: 0xC8 }
  - { offsetInCU: 0xA827, offset: 0x7B3C6, size: 0x8, addend: 0x0, symName: __ZNSt3__129_AllocatorDestroyRangeReverseINS_9allocatorI7ChannelEENS_16reverse_iteratorIPS2_EEEC1B7v160006ERS3_RS6_S9_, symObjAddr: 0x4B3C, symBinAddr: 0x100019930, symSize: 0x44 }
  - { offsetInCU: 0xA87E, offset: 0x7B41D, size: 0x8, addend: 0x0, symName: __ZNSt3__116allocator_traitsINS_9allocatorI7ChannelEEE9constructB7v160006IS2_JRKS2_EvEEvRS3_PT_DpOT0_, symObjAddr: 0x4BC8, symBinAddr: 0x1000199BC, symSize: 0x34 }
  - { offsetInCU: 0xA8D5, offset: 0x7B474, size: 0x8, addend: 0x0, symName: __ZNKSt3__116reverse_iteratorIP7ChannelEdeB7v160006Ev, symObjAddr: 0x4C20, symBinAddr: 0x100019A14, symSize: 0x28 }
  - { offsetInCU: 0xA909, offset: 0x7B4A8, size: 0x8, addend: 0x0, symName: __ZNSt3__116reverse_iteratorIP7ChannelEppB7v160006Ev, symObjAddr: 0x4C48, symBinAddr: 0x100019A3C, symSize: 0x20 }
  - { offsetInCU: 0xA92F, offset: 0x7B4CE, size: 0x8, addend: 0x0, symName: __ZNSt3__128__exception_guard_exceptionsINS_29_AllocatorDestroyRangeReverseINS_9allocatorI7ChannelEENS_16reverse_iteratorIPS3_EEEEE10__completeB7v160006Ev, symObjAddr: 0x4C68, symBinAddr: 0x100019A5C, symSize: 0x1C }
  - { offsetInCU: 0xA955, offset: 0x7B4F4, size: 0x8, addend: 0x0, symName: __ZNSt3__128__exception_guard_exceptionsINS_29_AllocatorDestroyRangeReverseINS_9allocatorI7ChannelEENS_16reverse_iteratorIPS3_EEEEED1B7v160006Ev, symObjAddr: 0x4C84, symBinAddr: 0x100019A78, symSize: 0x2C }
  - { offsetInCU: 0xA97F, offset: 0x7B51E, size: 0x8, addend: 0x0, symName: __ZNSt3__128__exception_guard_exceptionsINS_29_AllocatorDestroyRangeReverseINS_9allocatorI7ChannelEENS_16reverse_iteratorIPS3_EEEEEC1B7v160006ES8_, symObjAddr: 0x4CB0, symBinAddr: 0x100019AA4, symSize: 0x34 }
  - { offsetInCU: 0xA9B8, offset: 0x7B557, size: 0x8, addend: 0x0, symName: __ZNSt3__128__exception_guard_exceptionsINS_29_AllocatorDestroyRangeReverseINS_9allocatorI7ChannelEENS_16reverse_iteratorIPS3_EEEEEC2B7v160006ES8_, symObjAddr: 0x4CE4, symBinAddr: 0x100019AD8, symSize: 0x30 }
  - { offsetInCU: 0xA9F1, offset: 0x7B590, size: 0x8, addend: 0x0, symName: __ZNSt3__129_AllocatorDestroyRangeReverseINS_9allocatorI7ChannelEENS_16reverse_iteratorIPS2_EEEC2B7v160006ERS3_RS6_S9_, symObjAddr: 0x4D14, symBinAddr: 0x100019B08, symSize: 0x38 }
  - { offsetInCU: 0xAA48, offset: 0x7B5E7, size: 0x8, addend: 0x0, symName: __ZNSt3__19allocatorI7ChannelE9constructB7v160006IS1_JRKS1_EEEvPT_DpOT0_, symObjAddr: 0x4D4C, symBinAddr: 0x100019B40, symSize: 0x30 }
  - { offsetInCU: 0xAAA3, offset: 0x7B642, size: 0x8, addend: 0x0, symName: __ZNSt3__119__to_address_helperINS_16reverse_iteratorIP7ChannelEEvE6__callB7v160006ERKS4_, symObjAddr: 0x4D7C, symBinAddr: 0x100019B70, symSize: 0x4C }
  - { offsetInCU: 0xAAC6, offset: 0x7B665, size: 0x8, addend: 0x0, symName: __ZNKSt3__116reverse_iteratorIP7ChannelEptB7v160006Ev, symObjAddr: 0x4DC8, symBinAddr: 0x100019BBC, symSize: 0x24 }
  - { offsetInCU: 0xAAEC, offset: 0x7B68B, size: 0x8, addend: 0x0, symName: __ZNSt3__128__exception_guard_exceptionsINS_29_AllocatorDestroyRangeReverseINS_9allocatorI7ChannelEENS_16reverse_iteratorIPS3_EEEEED2B7v160006Ev, symObjAddr: 0x4DEC, symBinAddr: 0x100019BE0, symSize: 0x48 }
  - { offsetInCU: 0xAB16, offset: 0x7B6B5, size: 0x8, addend: 0x0, symName: __ZNKSt3__129_AllocatorDestroyRangeReverseINS_9allocatorI7ChannelEENS_16reverse_iteratorIPS2_EEEclB7v160006Ev, symObjAddr: 0x4E34, symBinAddr: 0x100019C28, symSize: 0xB4 }
  - { offsetInCU: 0xAB3D, offset: 0x7B6DC, size: 0x8, addend: 0x0, symName: __ZNSt3__116reverse_iteratorINS0_IP7ChannelEEEC1B7v160006ES3_, symObjAddr: 0x4F58, symBinAddr: 0x100019D4C, symSize: 0x3C }
  - { offsetInCU: 0xAB75, offset: 0x7B714, size: 0x8, addend: 0x0, symName: __ZNSt3__116reverse_iteratorINS0_IP7ChannelEEEppB7v160006Ev, symObjAddr: 0x5044, symBinAddr: 0x100019E0C, symSize: 0x30 }
  - { offsetInCU: 0xAB9B, offset: 0x7B73A, size: 0x8, addend: 0x0, symName: __ZNKSt3__116reverse_iteratorINS0_IP7ChannelEEE4baseB7v160006Ev, symObjAddr: 0x5074, symBinAddr: 0x100019E3C, symSize: 0x24 }
  - { offsetInCU: 0xABC6, offset: 0x7B765, size: 0x8, addend: 0x0, symName: __ZNSt3__119__to_address_helperINS_16reverse_iteratorINS1_IP7ChannelEEEEvE6__callB7v160006ERKS5_, symObjAddr: 0x50C0, symBinAddr: 0x100019E60, symSize: 0x4C }
  - { offsetInCU: 0xABE9, offset: 0x7B788, size: 0x8, addend: 0x0, symName: __ZNKSt3__116reverse_iteratorINS0_IP7ChannelEEEptB7v160006Ev, symObjAddr: 0x510C, symBinAddr: 0x100019EAC, symSize: 0x24 }
  - { offsetInCU: 0xAC0F, offset: 0x7B7AE, size: 0x8, addend: 0x0, symName: __ZNKSt3__116reverse_iteratorINS0_IP7ChannelEEEdeB7v160006Ev, symObjAddr: 0x5130, symBinAddr: 0x100019ED0, symSize: 0x34 }
  - { offsetInCU: 0xAC43, offset: 0x7B7E2, size: 0x8, addend: 0x0, symName: __ZNSt3__116reverse_iteratorIP7ChannelEmmB7v160006Ev, symObjAddr: 0x5164, symBinAddr: 0x100019F04, symSize: 0x20 }
  - { offsetInCU: 0xAC69, offset: 0x7B808, size: 0x8, addend: 0x0, symName: __ZNSt3__116reverse_iteratorINS0_IP7ChannelEEEC2B7v160006ES3_, symObjAddr: 0x5184, symBinAddr: 0x100019F24, symSize: 0x2C }
  - { offsetInCU: 0xACA1, offset: 0x7B840, size: 0x8, addend: 0x0, symName: __ZNSt3__116reverse_iteratorIP7ChannelEC2B7v160006ES2_, symObjAddr: 0x51B0, symBinAddr: 0x100019F50, symSize: 0x28 }
  - { offsetInCU: 0xACD9, offset: 0x7B878, size: 0x8, addend: 0x0, symName: __ZNSt3__114__split_bufferI7ChannelRNS_9allocatorIS1_EEED2Ev, symObjAddr: 0x51D8, symBinAddr: 0x100019F78, symSize: 0x80 }
  - { offsetInCU: 0xAD05, offset: 0x7B8A4, size: 0x8, addend: 0x0, symName: __ZNSt3__114__split_bufferI7ChannelRNS_9allocatorIS1_EEE5clearB7v160006Ev, symObjAddr: 0x5258, symBinAddr: 0x100019FF8, symSize: 0x28 }
  - { offsetInCU: 0xAD2B, offset: 0x7B8CA, size: 0x8, addend: 0x0, symName: __ZNKSt3__114__split_bufferI7ChannelRNS_9allocatorIS1_EEE8capacityB7v160006Ev, symObjAddr: 0x52B4, symBinAddr: 0x10001A020, symSize: 0x40 }
  - { offsetInCU: 0xAD51, offset: 0x7B8F0, size: 0x8, addend: 0x0, symName: __ZNSt3__114__split_bufferI7ChannelRNS_9allocatorIS1_EEE17__destruct_at_endB7v160006EPS1_, symObjAddr: 0x52F4, symBinAddr: 0x10001A060, symSize: 0x2C }
  - { offsetInCU: 0xAD84, offset: 0x7B923, size: 0x8, addend: 0x0, symName: __ZNSt3__114__split_bufferI7ChannelRNS_9allocatorIS1_EEE17__destruct_at_endB7v160006EPS1_NS_17integral_constantIbLb0EEE, symObjAddr: 0x5320, symBinAddr: 0x10001A08C, symSize: 0x94 }
  - { offsetInCU: 0xADC6, offset: 0x7B965, size: 0x8, addend: 0x0, symName: __ZNKSt3__114__split_bufferI7ChannelRNS_9allocatorIS1_EEE9__end_capB7v160006Ev, symObjAddr: 0x5428, symBinAddr: 0x10001A120, symSize: 0x28 }
  - { offsetInCU: 0xADEC, offset: 0x7B98B, size: 0x8, addend: 0x0, symName: __ZNKSt3__117__compressed_pairIP7ChannelRNS_9allocatorIS1_EEE5firstB7v160006Ev, symObjAddr: 0x5450, symBinAddr: 0x10001A148, symSize: 0x24 }
  - { offsetInCU: 0x799D, offset: 0x833B1, size: 0x8, addend: 0x0, symName: __ZN8Commands4KickER4UserRNSt3__16vectorI7ChannelNS2_9allocatorIS4_EEEEi, symObjAddr: 0x0, symBinAddr: 0x10001A16C, symSize: 0x338 }
  - { offsetInCU: 0x8B95, offset: 0x8BFDF, size: 0x8, addend: 0x0, symName: __ZN8Commands4PartER4UserRNSt3__16vectorI7ChannelNS2_9allocatorIS4_EEEEi, symObjAddr: 0x0, symBinAddr: 0x10001A4A4, symSize: 0x62C }
  - { offsetInCU: 0x7E14, offset: 0x93EA5, size: 0x8, addend: 0x0, symName: __ZN8Commands7PrivmsgER4UserRNSt3__16vectorI7ChannelNS2_9allocatorIS4_EEEERNS2_3mapIiS0_NS2_4lessIiEENS5_INS2_4pairIKiS0_EEEEEEi, symObjAddr: 0x0, symBinAddr: 0x10001AAD0, symSize: 0x78C }
  - { offsetInCU: 0x7ED4, offset: 0x93F65, size: 0x8, addend: 0x0, symName: __ZNKSt3__111__wrap_iterIPNS_12basic_stringIcNS_11char_traitsIcEENS_9allocatorIcEEEEEixB7v160006El, symObjAddr: 0xD50, symBinAddr: 0x10001B25C, symSize: 0x2C }
  - { offsetInCU: 0x7B88, offset: 0x9BB2F, size: 0x8, addend: 0x0, symName: __ZN8Commands5TopicER4UserRNSt3__16vectorI7ChannelNS2_9allocatorIS4_EEEEi, symObjAddr: 0x0, symBinAddr: 0x10001B288, symSize: 0x298 }
  - { offsetInCU: 0x799D, offset: 0xA355B, size: 0x8, addend: 0x0, symName: __ZN8Commands4ModeER4UserRNSt3__16vectorI7ChannelNS2_9allocatorIS4_EEEEi, symObjAddr: 0x0, symBinAddr: 0x10001B520, symSize: 0x3E0 }
  - { offsetInCU: 0x797E, offset: 0xAAF63, size: 0x8, addend: 0x0, symName: __ZN8Commands3CapEi, symObjAddr: 0x0, symBinAddr: 0x10001B900, symSize: 0x7C }
  - { offsetInCU: 0x7DD6, offset: 0xB2D79, size: 0x8, addend: 0x0, symName: __ZN8Commands6NoticeER4UserRNSt3__16vectorI7ChannelNS2_9allocatorIS4_EEEERNS2_3mapIiS0_NS2_4lessIiEENS5_INS2_4pairIKiS0_EEEEEE, symObjAddr: 0x0, symBinAddr: 0x10001B97C, symSize: 0x5DC }
...
